(dp0
S'ENSG00000123545'
p1
I6
sS'ENSG00000042317'
p2
I14
sS'ENSG00000096746'
p3
I10
sS'ENSG00000145332'
p4
I4
sS'ENSG00000205863'
p5
I13
sS'ENSG00000140955'
p6
I16
sS'ENSG00000204595'
p7
I19
sS'ENSG00000128604'
p8
I7
sS'ENSG00000137310'
p9
I6
sS'ENSG00000111450'
p10
I12
sS'ENSG00000153406'
p11
I16
sS'ENSG00000176769'
p12
I10
sS'ENSG00000110455'
p13
I11
sS'ENSG00000176681'
p14
I17
sS'ENSG00000106771'
p15
I9
sS'ENSG00000215883'
p16
I1
sS'ENSG00000253710'
p17
I13
sS'ENSG00000258227'
p18
I7
sS'ENSG00000189269'
p19
I22
sS'ENSG00000106483'
p20
I7
sS'ENSG00000134551'
p21
I12
sS'ENSG00000143353'
p22
I1
sS'ENSG00000198556'
p23
I7
sS'ENSG00000253719'
p24
I12
sS'ENSG00000169032'
p25
I15
sS'ENSG00000039068'
p26
I16
sS'ENSG00000143198'
p27
I1
sS'ENSG00000143199'
p28
I1
sS'ENSG00000198417'
p29
I16
sS'ENSG00000100376'
p30
I22
sS'ENSG00000143217'
p31
I1
sS'ENSG00000161999'
p32
I16
sS'ENSG00000161996'
p33
I16
sS'ENSG00000188372'
p34
I7
sS'ENSG00000143190'
p35
I1
sS'ENSG00000103021'
p36
I16
sS'ENSG00000176623'
p37
I8
sS'ENSG00000243678'
p38
I17
sS'ENSG00000171533'
p39
I11
sS'ENSG00000163161'
p40
I2
sS'ENSG00000177409'
p41
I7
sS'ENSG00000214842'
p42
I2
sS'ENSG00000189042'
p43
I19
sS'ENSG00000099290'
p44
I10
sS'ENSG00000131626'
p45
I11
sS'ENSG00000163082'
p46
I2
sS'ENSG00000109111'
p47
I17
sS'ENSG00000084444'
p48
I12
sS'ENSG00000169627'
p49
I16
sS'ENSG00000105479'
p50
I19
sS'ENSG00000176542'
p51
I3
sS'ENSG00000111671'
p52
I12
sS'ENSG00000180739'
p53
I19
sS'ENSG00000111676'
p54
I12
sS'ENSG00000159733'
p55
I4
sS'ENSG00000183255'
p56
I21
sS'ENSG00000065548'
p57
I2
sS'ENSG00000136243'
p58
I7
sS'ENSG00000184232'
p59
I11
sS'ENSG00000110218'
p60
I11
sS'ENSG00000007171'
p61
I17
sS'ENSG00000132436'
p62
I7
sS'ENSG00000139537'
p63
I12
sS'ENSG00000146247'
p64
I6
sS'ENSG00000189190'
p65
I19
sS'ENSG00000083099'
p66
I6
sS'ENSG00000203326'
p67
I19
sS'ENSG00000178809'
p68
I7
sS'ENSG00000177984'
p69
I9
sS'ENSG00000147454'
p70
I8
sS'ENSG00000143776'
p71
I1
sS'ENSG00000141433'
p72
I18
sS'ENSG00000163017'
p73
I2
sS'ENSG00000143858'
p74
I1
sS'ENSG00000169118'
p75
I15
sS'ENSG00000134077'
p76
I3
sS'ENSG00000143674'
p77
I1
sS'ENSG00000123388'
p78
I12
sS'ENSG00000146530'
p79
I7
sS'ENSG00000243284'
p80
I1
sS'ENSG00000188488'
p81
I14
sS'ENSG00000128245'
p82
I22
sS'ENSG00000178980'
p83
I19
sS'ENSG00000105617'
p84
I19
sS'ENSG00000185829'
p85
I17
sS'ENSG00000166349'
p86
I11
sS'ENSG00000002822'
p87
I7
sS'ENSG00000153113'
p88
I5
sS'ENSG00000100285'
p89
I22
sS'ENSG00000241233'
p90
I11
sS'ENSG00000213927'
p91
I9
sS'ENSG00000166228'
p92
I10
sS'ENSG00000166887'
p93
I15
sS'ENSG00000132182'
p94
I3
sS'ENSG00000121716'
p95
I7
sS'ENSG00000102572'
p96
I13
sS'ENSG00000106686'
p97
I9
sS'ENSG00000215262'
p98
I8
sS'ENSG00000239998'
p99
I19
sS'ENSG00000222009'
p100
I1
sS'ENSG00000249852'
p101
I7
sS'ENSG00000068971'
p102
I11
sS'ENSG00000099204'
p103
I10
sS'ENSG00000104343'
p104
I8
sS'ENSG00000206432'
p105
I18
sS'ENSG00000161847'
p106
I19
sS'ENSG00000177494'
p107
I3
sS'ENSG00000197586'
p108
I20
sS'ENSG00000187961'
p109
I1
sS'ENSG00000153147'
p110
I4
sS'ENSG00000137440'
p111
I4
sS'ENSG00000138381'
p112
I2
sS'ENSG00000111276'
p113
I12
sS'ENSG00000184489'
p114
I8
sS'ENSG00000184164'
p115
I22
sS'ENSG00000135974'
p116
I2
sS'ENSG00000135976'
p117
I2
sS'ENSG00000167280'
p118
I17
sS'ENSG00000118496'
p119
I6
sS'ENSG00000167283'
p120
I11
sS'ENSG00000167525'
p121
I17
sS'ENSG00000114648'
p122
I3
sS'ENSG00000138834'
p123
I16
sS'ENSG00000143036'
p124
I1
sS'ENSG00000177606'
p125
I1
sS'ENSG00000132768'
p126
I1
sS'ENSG00000034693'
p127
I6
sS'ENSG00000204252'
p128
I6
sS'ENSG00000169957'
p129
I16
sS'ENSG00000108947'
p130
I17
sS'ENSG00000166337'
p131
I11
sS'ENSG00000184465'
p132
I6
sS'ENSG00000053900'
p133
I4
sS'ENSG00000165626'
p134
I10
sS'ENSG00000183166'
p135
I7
sS'ENSG00000163749'
p136
I4
sS'ENSG00000131019'
p137
I6
sS'ENSG00000166532'
p138
I12
sS'ENSG00000162695'
p139
I1
sS'ENSG00000128917'
p140
I15
sS'ENSG00000129422'
p141
I8
sS'ENSG00000149090'
p142
I11
sS'ENSG00000138078'
p143
I2
sS'ENSG00000010030'
p144
I6
sS'ENSG00000175893'
p145
I9
sS'ENSG00000004779'
p146
I16
sS'ENSG00000196126'
p147
I6
sS'ENSG00000119630'
p148
I14
sS'ENSG00000119147'
p149
I2
sS'ENSG00000119632'
p150
I14
sS'ENSG00000180011'
p151
I18
sS'ENSG00000119227'
p152
I3
sS'ENSG00000029363'
p153
I6
sS'ENSG00000152439'
p154
I19
sS'ENSG00000188707'
p155
I7
sS'ENSG00000139718'
p156
I12
sS'ENSG00000187688'
p157
I17
sS'ENSG00000158865'
p158
I16
sS'ENSG00000133216'
p159
I1
sS'ENSG00000067533'
p160
I1
sS'ENSG00000115350'
p161
I2
sS'ENSG00000184144'
p162
I1
sS'ENSG00000188234'
p163
I10
sS'ENSG00000168461'
p164
I18
sS'ENSG00000013588'
p165
I12
sS'ENSG00000136108'
p166
I13
sS'ENSG00000185619'
p167
I4
sS'ENSG00000113734'
p168
I5
sS'ENSG00000115073'
p169
I2
sS'ENSG00000255874'
p170
I13
sS'ENSG00000004455'
p171
I1
sS'ENSG00000165055'
p172
I7
sS'ENSG00000131116'
p173
I19
sS'ENSG00000162188'
p174
I11
sS'ENSG00000132958'
p175
I13
sS'ENSG00000165752'
p176
I10
sS'ENSG00000138346'
p177
I10
sS'ENSG00000114857'
p178
I3
sS'ENSG00000214435'
p179
I10
sS'ENSG00000213859'
p180
I17
sS'ENSG00000138698'
p181
I4
sS'ENSG00000126467'
p182
I19
sS'ENSG00000250673'
p183
I4
sS'ENSG00000075234'
p184
I22
sS'ENSG00000145414'
p185
I4
sS'ENSG00000197217'
p186
I8
sS'ENSG00000271043'
p187
I5
sS'ENSG00000183273'
p188
I12
sS'ENSG00000158055'
p189
I1
sS'ENSG00000129451'
p190
I19
sS'ENSG00000128989'
p191
I15
sS'ENSG00000138744'
p192
I4
sS'ENSG00000015676'
p193
I7
sS'ENSG00000186567'
p194
I19
sS'ENSG00000136002'
p195
I2
sS'ENSG00000233276'
p196
I3
sS'ENSG00000024048'
p197
I6
sS'ENSG00000164897'
p198
I7
sS'ENSG00000066230'
p199
I5
sS'ENSG00000138660'
p200
I4
sS'ENSG00000119686'
p201
I14
sS'ENSG00000157870'
p202
I1
sS'ENSG00000009780'
p203
I1
sS'ENSG00000173145'
p204
I10
sS'ENSG00000137193'
p205
I6
sS'ENSG00000116151'
p206
I1
sS'ENSG00000133316'
p207
I11
sS'ENSG00000063046'
p208
I12
sS'ENSG00000077585'
p209
I1
sS'ENSG00000145817'
p210
I5
sS'ENSG00000173805'
p211
I17
sS'ENSG00000125945'
p212
I1
sS'ENSG00000173960'
p213
I2
sS'ENSG00000138111'
p214
I10
sS'ENSG00000022277'
p215
I20
sS'ENSG00000125869'
p216
I20
sS'ENSG00000108264'
p217
I17
sS'ENSG00000101181'
p218
I20
sS'ENSG00000066427'
p219
I14
sS'ENSG00000137074'
p220
I9
sS'ENSG00000171793'
p221
I1
sS'ENSG00000108262'
p222
I17
sS'ENSG00000108306'
p223
I17
sS'ENSG00000144488'
p224
I2
sS'ENSG00000126267'
p225
I19
sS'ENSG00000182013'
p226
I19
sS'ENSG00000185684'
p227
I12
sS'ENSG00000157578'
p228
I21
sS'ENSG00000174600'
p229
I12
sS'ENSG00000185689'
p230
I6
sS'ENSG00000153898'
p231
I1
sS'ENSG00000204371'
p232
I6
sS'ENSG00000154274'
p233
I4
sS'ENSG00000059122'
p234
I16
sS'ENSG00000070601'
p235
I9
sS'ENSG00000268885'
p236
I5
sS'ENSG00000151388'
p237
I5
sS'ENSG00000171928'
p238
I17
sS'ENSG00000157379'
p239
I14
sS'ENSG00000138592'
p240
I15
sS'ENSG00000119457'
p241
I9
sS'ENSG00000155275'
p242
I4
sS'ENSG00000161011'
p243
I5
sS'ENSG00000173566'
p244
I8
sS'ENSG00000186318'
p245
I11
sS'ENSG00000073417'
p246
I15
sS'ENSG00000174788'
p247
I19
sS'ENSG00000214954'
p248
I8
sS'ENSG00000086475'
p249
I10
sS'ENSG00000165671'
p250
I5
sS'ENSG00000136950'
p251
I9
sS'ENSG00000089063'
p252
I20
sS'ENSG00000073008'
p253
I19
sS'ENSG00000174780'
p254
I4
sS'ENSG00000112357'
p255
I6
sS'ENSG00000186132'
p256
I2
sS'ENSG00000161016'
p257
I8
sS'ENSG00000006282'
p258
I17
sS'ENSG00000137507'
p259
I11
sS'ENSG00000236624'
p260
I1
sS'ENSG00000258289'
p261
I14
sS'ENSG00000107290'
p262
I9
sS'ENSG00000138231'
p263
I3
sS'ENSG00000067064'
p264
I10
sS'ENSG00000105472'
p265
I19
sS'ENSG00000205090'
p266
I1
sS'ENSG00000049283'
p267
I17
sS'ENSG00000165275'
p268
I9
sS'ENSG00000106330'
p269
I7
sS'ENSG00000198805'
p270
I14
sS'ENSG00000175928'
p271
I3
sS'ENSG00000169744'
p272
I4
sS'ENSG00000146166'
p273
I6
sS'ENSG00000183569'
p274
I22
sS'ENSG00000126602'
p275
I16
sS'ENSG00000159202'
p276
I17
sS'ENSG00000101115'
p277
I20
sS'ENSG00000125895'
p278
I20
sS'ENSG00000163083'
p279
I2
sS'ENSG00000116874'
p280
I1
sS'ENSG00000173020'
p281
I11
sS'ENSG00000196653'
p282
I3
sS'ENSG00000171984'
p283
I20
sS'ENSG00000178188'
p284
I16
sS'ENSG00000196655'
p285
I11
sS'ENSG00000164695'
p286
I8
sS'ENSG00000161618'
p287
I19
sS'ENSG00000175322'
p288
I18
sS'ENSG00000100908'
p289
I14
sS'ENSG00000196151'
p290
I2
sS'ENSG00000218537'
p291
I22
sS'ENSG00000152207'
p292
I13
sS'ENSG00000116473'
p293
I1
sS'ENSG00000130348'
p294
I6
sS'ENSG00000054654'
p295
I14
sS'ENSG00000006744'
p296
I17
sS'ENSG00000159842'
p297
I17
sS'ENSG00000061337'
p298
I8
sS'ENSG00000168884'
p299
I4
sS'ENSG00000213023'
p300
I19
sS'ENSG00000213020'
p301
I19
sS'ENSG00000160190'
p302
I21
sS'ENSG00000170298'
p303
I17
sS'ENSG00000099949'
p304
I22
sS'ENSG00000197013'
p305
I19
sS'ENSG00000165309'
p306
I10
sS'ENSG00000178573'
p307
I16
sS'ENSG00000140009'
p308
I14
sS'ENSG00000106263'
p309
I7
sS'ENSG00000164978'
p310
I9
sS'ENSG00000014164'
p311
I8
sS'ENSG00000085788'
p312
I8
sS'ENSG00000128585'
p313
I7
sS'ENSG00000117174'
p314
I1
sS'ENSG00000100731'
p315
I14
sS'ENSG00000107443'
p316
I10
sS'ENSG00000101605'
p317
I18
sS'ENSG00000099785'
p318
I19
sS'ENSG00000196535'
p319
I17
sS'ENSG00000159111'
p320
I17
sS'ENSG00000135972'
p321
I2
sS'ENSG00000021488'
p322
I19
sS'ENSG00000259384'
p323
I17
sS'ENSG00000171130'
p324
I7
sS'ENSG00000151632'
p325
I10
sS'ENSG00000197958'
p326
I9
sS'ENSG00000070669'
p327
I7
sS'ENSG00000106244'
p328
I7
sS'ENSG00000256269'
p329
I11
sS'ENSG00000149577'
p330
I11
sS'ENSG00000161277'
p331
I19
sS'ENSG00000179922'
p332
I19
sS'ENSG00000117425'
p333
I1
sS'ENSG00000053702'
p334
I12
sS'ENSG00000087253'
p335
I16
sS'ENSG00000196355'
p336
I4
sS'ENSG00000255408'
p337
I5
sS'ENSG00000077549'
p338
I1
sS'ENSG00000161682'
p339
I17
sS'ENSG00000104866'
p340
I19
sS'ENSG00000086300'
p341
I7
sS'ENSG00000138658'
p342
I4
sS'ENSG00000125485'
p343
I9
sS'ENSG00000006114'
p344
I17
sS'ENSG00000185324'
p345
I16
sS'ENSG00000113430'
p346
I5
sS'ENSG00000122085'
p347
I2
sS'ENSG00000182809'
p348
I14
sS'ENSG00000143442'
p349
I1
sS'ENSG00000156535'
p350
I6
sS'ENSG00000169246'
p351
I16
sS'ENSG00000228300'
p352
I19
sS'ENSG00000143119'
p353
I1
sS'ENSG00000198707'
p354
I12
sS'ENSG00000140623'
p355
I16
sS'ENSG00000169241'
p356
I1
sS'ENSG00000206559'
p357
I3
sS'ENSG00000103994'
p358
I15
sS'ENSG00000171161'
p359
I1
sS'ENSG00000072858'
p360
I3
sS'ENSG00000140093'
p361
I14
sS'ENSG00000182963'
p362
I17
sS'ENSG00000204104'
p363
I2
sS'ENSG00000081177'
p364
I14
sS'ENSG00000124145'
p365
I20
sS'ENSG00000183783'
p366
I4
sS'ENSG00000256229'
p367
I19
sS'ENSG00000124767'
p368
I6
sS'ENSG00000139531'
p369
I12
sS'ENSG00000175213'
p370
I11
sS'ENSG00000001167'
p371
I6
sS'ENSG00000151445'
p372
I14
sS'ENSG00000037757'
p373
I19
sS'ENSG00000111341'
p374
I12
sS'ENSG00000103510'
p375
I16
sS'ENSG00000103168'
p376
I16
sS'ENSG00000198945'
p377
I6
sS'ENSG00000134884'
p378
I13
sS'ENSG00000125734'
p379
I19
sS'ENSG00000110448'
p380
I11
sS'ENSG00000125730'
p381
I19
sS'ENSG00000273045'
p382
I2
sS'ENSG00000125637'
p383
I2
sS'ENSG00000175170'
p384
I20
sS'ENSG00000164733'
p385
I8
sS'ENSG00000111581'
p386
I12
sS'ENSG00000187867'
p387
I19
sS'ENSG00000170430'
p388
I10
sS'ENSG00000169180'
p389
I16
sS'ENSG00000189350'
p390
I2
sS'ENSG00000188176'
p391
I17
sS'ENSG00000169184'
p392
I22
sS'ENSG00000103199'
p393
I16
sS'ENSG00000167613'
p394
I19
sS'ENSG00000182986'
p395
I19
sS'ENSG00000103194'
p396
I16
sS'ENSG00000167759'
p397
I19
sS'ENSG00000113721'
p398
I5
sS'ENSG00000134815'
p399
I19
sS'ENSG00000151208'
p400
I10
sS'ENSG00000198015'
p401
I12
sS'ENSG00000137996'
p402
I1
sS'ENSG00000164754'
p403
I8
sS'ENSG00000172086'
p404
I2
sS'ENSG00000243317'
p405
I7
sS'ENSG00000111906'
p406
I6
sS'ENSG00000075399'
p407
I16
sS'ENSG00000140265'
p408
I15
sS'ENSG00000103852'
p409
I15
sS'ENSG00000198336'
p410
I17
sS'ENSG00000169752'
p411
I15
sS'ENSG00000131323'
p412
I14
sS'ENSG00000005448'
p413
I2
sS'ENSG00000215915'
p414
I1
sS'ENSG00000160813'
p415
I7
sS'ENSG00000169758'
p416
I15
sS'ENSG00000109047'
p417
I17
sS'ENSG00000137992'
p418
I1
sS'ENSG00000177551'
p419
I1
sS'ENSG00000130158'
p420
I19
sS'ENSG00000113810'
p421
I3
sS'ENSG00000007080'
p422
I19
sS'ENSG00000069493'
p423
I12
sS'ENSG00000134202'
p424
I1
sS'ENSG00000205809'
p425
I12
sS'ENSG00000130518'
p426
I19
sS'ENSG00000070476'
p427
I3
sS'ENSG00000136819'
p428
I9
sS'ENSG00000116663'
p429
I1
sS'ENSG00000082497'
p430
I1
sS'ENSG00000105865'
p431
I7
sS'ENSG00000142166'
p432
I21
sS'ENSG00000168754'
p433
I2
sS'ENSG00000163002'
p434
I2
sS'ENSG00000143702'
p435
I1
sS'ENSG00000131037'
p436
I19
sS'ENSG00000177951'
p437
I11
sS'ENSG00000048462'
p438
I16
sS'ENSG00000167721'
p439
I17
sS'ENSG00000167720'
p440
I17
sS'ENSG00000143842'
p441
I1
sS'ENSG00000102967'
p442
I16
sS'ENSG00000198246'
p443
I10
sS'ENSG00000127585'
p444
I16
sS'ENSG00000092036'
p445
I14
sS'ENSG00000106392'
p446
I7
sS'ENSG00000166896'
p447
I12
sS'ENSG00000183281'
p448
I2
sS'ENSG00000188493'
p449
I19
sS'ENSG00000144040'
p450
I2
sS'ENSG00000213930'
p451
I9
sS'ENSG00000057468'
p452
I1
sS'ENSG00000175077'
p453
I3
sS'ENSG00000188086'
p454
I3
sS'ENSG00000213934'
p455
I11
sS'ENSG00000155368'
p456
I2
sS'ENSG00000164172'
p457
I5
sS'ENSG00000176390'
p458
I17
sS'ENSG00000127946'
p459
I7
sS'ENSG00000179344'
p460
I6
sS'ENSG00000179023'
p461
I1
sS'ENSG00000179021'
p462
I3
sS'ENSG00000183049'
p463
I10
sS'ENSG00000180155'
p464
I8
sS'ENSG00000184492'
p465
I2
sS'ENSG00000160326'
p466
I9
sS'ENSG00000118257'
p467
I2
sS'ENSG00000176155'
p468
I17
sS'ENSG00000204580'
p469
I6
sS'ENSG00000122674'
p470
I7
sS'ENSG00000168421'
p471
I4
sS'ENSG00000105695'
p472
I19
sS'ENSG00000188038'
p473
I16
sS'ENSG00000142544'
p474
I19
sS'ENSG00000135966'
p475
I2
sS'ENSG00000146707'
p476
I7
sS'ENSG00000196683'
p477
I7
sS'ENSG00000163918'
p478
I3
sS'ENSG00000189007'
p479
I6
sS'ENSG00000250317'
p480
I4
sS'ENSG00000262246'
p481
I16
sS'ENSG00000149658'
p482
I20
sS'ENSG00000144535'
p483
I2
sS'ENSG00000162105'
p484
I11
sS'ENSG00000182247'
p485
I3
sS'ENSG00000188886'
p486
I2
sS'ENSG00000105738'
p487
I19
sS'ENSG00000182836'
p488
I5
sS'ENSG00000128908'
p489
I15
sS'ENSG00000149571'
p490
I11
sS'ENSG00000071894'
p491
I8
sS'ENSG00000184779'
p492
I15
sS'ENSG00000149474'
p493
I20
sS'ENSG00000095066'
p494
I19
sS'ENSG00000221923'
p495
I19
sS'ENSG00000173641'
p496
I1
sS'ENSG00000188921'
p497
I9
sS'ENSG00000153012'
p498
I4
sS'ENSG00000149084'
p499
I11
sS'ENSG00000072062'
p500
I19
sS'ENSG00000105289'
p501
I19
sS'ENSG00000169136'
p502
I19
sS'ENSG00000177600'
p503
I11
sS'ENSG00000105287'
p504
I19
sS'ENSG00000003987'
p505
I8
sS'ENSG00000213983'
p506
I14
sS'ENSG00000149089'
p507
I11
sS'ENSG00000141527'
p508
I17
sS'ENSG00000141526'
p509
I17
sS'ENSG00000213654'
p510
I6
sS'ENSG00000205629'
p511
I16
sS'ENSG00000088247'
p512
I19
sS'ENSG00000111012'
p513
I12
sS'ENSG00000163898'
p514
I3
sS'ENSG00000165912'
p515
I11
sS'ENSG00000040531'
p516
I17
sS'ENSG00000165916'
p517
I11
sS'ENSG00000164975'
p518
I9
sS'ENSG00000183117'
p519
I8
sS'ENSG00000136247'
p520
I7
sS'ENSG00000132600'
p521
I16
sS'ENSG00000162613'
p522
I1
sS'ENSG00000111845'
p523
I6
sS'ENSG00000176928'
p524
I5
sS'ENSG00000132604'
p525
I16
sS'ENSG00000104228'
p526
I8
sS'ENSG00000185608'
p527
I22
sS'ENSG00000144228'
p528
I2
sS'ENSG00000108639'
p529
I17
sS'ENSG00000138722'
p530
I4
sS'ENSG00000127952'
p531
I7
sS'ENSG00000244607'
p532
I3
sS'ENSG00000214402'
p533
I9
sS'ENSG00000184602'
p534
I16
sS'ENSG00000136051'
p535
I12
sS'ENSG00000162769'
p536
I1
sS'ENSG00000154928'
p537
I3
sS'ENSG00000105137'
p538
I19
sS'ENSG00000221819'
p539
I16
sS'ENSG00000244509'
p540
I22
sS'ENSG00000168661'
p541
I19
sS'ENSG00000166796'
p542
I11
sS'ENSG00000089916'
p543
I14
sS'ENSG00000166147'
p544
I15
sS'ENSG00000166140'
p545
I15
sS'ENSG00000154548'
p546
I6
sS'ENSG00000243566'
p547
I7
sS'ENSG00000166415'
p548
I15
sS'ENSG00000183303'
p549
I11
sS'ENSG00000177042'
p550
I11
sS'ENSG00000133488'
p551
I22
sS'ENSG00000176386'
p552
I9
sS'ENSG00000141622'
p553
I18
sS'ENSG00000168476'
p554
I8
sS'ENSG00000172380'
p555
I1
sS'ENSG00000106682'
p556
I7
sS'ENSG00000196963'
p557
I5
sS'ENSG00000158006'
p558
I1
sS'ENSG00000187555'
p559
I16
sS'ENSG00000113621'
p560
I5
sS'ENSG00000162924'
p561
I2
sS'ENSG00000066382'
p562
I11
sS'ENSG00000180376'
p563
I3
sS'ENSG00000172671'
p564
I10
sS'ENSG00000152492'
p565
I3
sS'ENSG00000127824'
p566
I2
sS'ENSG00000115468'
p567
I2
sS'ENSG00000184674'
p568
I22
sS'ENSG00000005075'
p569
I7
sS'ENSG00000141150'
p570
I17
sS'ENSG00000080839'
p571
I20
sS'ENSG00000168566'
p572
I6
sS'ENSG00000206053'
p573
I16
sS'ENSG00000141013'
p574
I16
sS'ENSG00000123453'
p575
I9
sS'ENSG00000102910'
p576
I16
sS'ENSG00000198885'
p577
I2
sS'ENSG00000185736'
p578
I10
sS'ENSG00000148110'
p579
I9
sS'ENSG00000166669'
p580
I16
sS'ENSG00000260300'
p581
I16
sS'ENSG00000162244'
p582
I3
sS'ENSG00000101191'
p583
I20
sS'ENSG00000101193'
p584
I20
sS'ENSG00000125814'
p585
I20
sS'ENSG00000196235'
p586
I19
sS'ENSG00000070214'
p587
I9
sS'ENSG00000244752'
p588
I22
sS'ENSG00000021776'
p589
I15
sS'ENSG00000182141'
p590
I19
sS'ENSG00000101460'
p591
I20
sS'ENSG00000154263'
p592
I17
sS'ENSG00000153132'
p593
I4
sS'ENSG00000119705'
p594
I14
sS'ENSG00000204149'
p595
I10
sS'ENSG00000122026'
p596
I13
sS'ENSG00000166529'
p597
I7
sS'ENSG00000068781'
p598
I2
sS'ENSG00000137976'
p599
I1
sS'ENSG00000168028'
p600
I3
sS'ENSG00000187398'
p601
I11
sS'ENSG00000204147'
p602
I10
sS'ENSG00000077984'
p603
I20
sS'ENSG00000011451'
p604
I19
sS'ENSG00000180806'
p605
I12
sS'ENSG00000130489'
p606
I22
sS'ENSG00000159516'
p607
I1
sS'ENSG00000159692'
p608
I4
sS'ENSG00000147601'
p609
I8
sS'ENSG00000119866'
p610
I2
sS'ENSG00000058085'
p611
I1
sS'ENSG00000080166'
p612
I13
sS'ENSG00000000460'
p613
I1
sS'ENSG00000242612'
p614
I16
sS'ENSG00000089177'
p615
I20
sS'ENSG00000250565'
p616
I2
sS'ENSG00000148690'
p617
I10
sS'ENSG00000162407'
p618
I1
sS'ENSG00000139890'
p619
I14
sS'ENSG00000103034'
p620
I16
sS'ENSG00000150093'
p621
I10
sS'ENSG00000189376'
p622
I8
sS'ENSG00000125885'
p623
I20
sS'ENSG00000129055'
p624
I3
sS'ENSG00000139899'
p625
I14
sS'ENSG00000182903'
p626
I4
sS'ENSG00000155229'
p627
I10
sS'ENSG00000129757'
p628
I11
sS'ENSG00000183570'
p629
I21
sS'ENSG00000183571'
p630
I15
sS'ENSG00000008256'
p631
I7
sS'ENSG00000188396'
p632
I1
sS'ENSG00000145416'
p633
I4
sS'ENSG00000100439'
p634
I14
sS'ENSG00000213221'
p635
I9
sS'ENSG00000161055'
p636
I5
sS'ENSG00000236609'
p637
I7
sS'ENSG00000077348'
p638
I19
sS'ENSG00000112280'
p639
I6
sS'ENSG00000134398'
p640
I16
sS'ENSG00000154640'
p641
I21
sS'ENSG00000204314'
p642
I6
sS'ENSG00000204316'
p643
I17
sS'ENSG00000172322'
p644
I12
sS'ENSG00000144115'
p645
I2
sS'ENSG00000110628'
p646
I11
sS'ENSG00000196411'
p647
I7
sS'ENSG00000160808'
p648
I3
sS'ENSG00000196646'
p649
I19
sS'ENSG00000100938'
p650
I14
sS'ENSG00000131435'
p651
I5
sS'ENSG00000174562'
p652
I19
sS'ENSG00000121989'
p653
I2
sS'ENSG00000121764'
p654
I1
sS'ENSG00000196167'
p655
I11
sS'ENSG00000159079'
p656
I21
sS'ENSG00000115486'
p657
I2
sS'ENSG00000196943'
p658
I14
sS'ENSG00000158859'
p659
I1
sS'ENSG00000006695'
p660
I17
sS'ENSG00000122557'
p661
I7
sS'ENSG00000136982'
p662
I8
sS'ENSG00000130294'
p663
I2
sS'ENSG00000213057'
p664
I1
sS'ENSG00000126858'
p665
I17
sS'ENSG00000198951'
p666
I22
sS'ENSG00000239264'
p667
I6
sS'ENSG00000120669'
p668
I13
sS'ENSG00000168875'
p669
I3
sS'ENSG00000120586'
p670
I10
sS'ENSG00000140400'
p671
I15
sS'ENSG00000151148'
p672
I12
sS'ENSG00000100239'
p673
I22
sS'ENSG00000164385'
p674
I6
sS'ENSG00000148334'
p675
I9
sS'ENSG00000032219'
p676
I14
sS'ENSG00000120664'
p677
I13
sS'ENSG00000101639'
p678
I18
sS'ENSG00000100721'
p679
I14
sS'ENSG00000130758'
p680
I19
sS'ENSG00000037474'
p681
I5
sS'ENSG00000214106'
p682
I7
sS'ENSG00000110900'
p683
I12
sS'ENSG00000100726'
p684
I16
sS'ENSG00000196418'
p685
I1
sS'ENSG00000232237'
p686
I1
sS'ENSG00000170113'
p687
I15
sS'ENSG00000161048'
p688
I7
sS'ENSG00000086548'
p689
I19
sS'ENSG00000257103'
p690
I19
sS'ENSG00000241186'
p691
I3
sS'ENSG00000007376'
p692
I16
sS'ENSG00000180979'
p693
I15
sS'ENSG00000103351'
p694
I16
sS'ENSG00000238083'
p695
I17
sS'ENSG00000186115'
p696
I19
sS'ENSG00000197608'
p697
I19
sS'ENSG00000110057'
p698
I11
sS'ENSG00000173276'
p699
I21
sS'ENSG00000150630'
p700
I4
sS'ENSG00000108830'
p701
I17
sS'ENSG00000117020'
p702
I1
sS'ENSG00000224712'
p703
I16
sS'ENSG00000175264'
p704
I11
sS'ENSG00000121207'
p705
I4
sS'ENSG00000085514'
p706
I7
sS'ENSG00000189127'
p707
I5
sS'ENSG00000198718'
p708
I14
sS'ENSG00000164035'
p709
I4
sS'ENSG00000196735'
p710
I6
sS'ENSG00000139144'
p711
I12
sS'ENSG00000169231'
p712
I1
sS'ENSG00000151327'
p713
I14
sS'ENSG00000164039'
p714
I4
sS'ENSG00000137563'
p715
I8
sS'ENSG00000050748'
p716
I5
sS'ENSG00000100156'
p717
I22
sS'ENSG00000075413'
p718
I14
sS'ENSG00000170234'
p719
I5
sS'ENSG00000170236'
p720
I15
sS'ENSG00000072864'
p721
I16
sS'ENSG00000103227'
p722
I16
sS'ENSG00000198130'
p723
I2
sS'ENSG00000198131'
p724
I19
sS'ENSG00000198133'
p725
I14
sS'ENSG00000134873'
p726
I13
sS'ENSG00000111801'
p727
I6
sS'ENSG00000188152'
p728
I9
sS'ENSG00000160803'
p729
I1
sS'ENSG00000124613'
p730
I6
sS'ENSG00000120314'
p731
I5
sS'ENSG00000175040'
p732
I3
sS'ENSG00000187260'
p733
I7
sS'ENSG00000123485'
p734
I2
sS'ENSG00000125743'
p735
I19
sS'ENSG00000155918'
p736
I6
sS'ENSG00000239511'
p737
I22
sS'ENSG00000147459'
p738
I8
sS'ENSG00000203546'
p739
I14
sS'ENSG00000169371'
p740
I15
sS'ENSG00000161243'
p741
I19
sS'ENSG00000113719'
p742
I5
sS'ENSG00000113558'
p743
I5
sS'ENSG00000134575'
p744
I11
sS'ENSG00000140575'
p745
I15
sS'ENSG00000121966'
p746
I2
sS'ENSG00000160094'
p747
I1
sS'ENSG00000138750'
p748
I4
sS'ENSG00000071205'
p749
I4
sS'ENSG00000169347'
p750
I16
sS'ENSG00000010704'
p751
I6
sS'ENSG00000265681'
p752
I18
sS'ENSG00000141232'
p753
I17
sS'ENSG00000123411'
p754
I12
sS'ENSG00000165621'
p755
I13
sS'ENSG00000134809'
p756
I11
sS'ENSG00000151353'
p757
I2
sS'ENSG00000134779'
p758
I18
sS'ENSG00000197165'
p759
I16
sS'ENSG00000100038'
p760
I22
sS'ENSG00000088808'
p761
I14
sS'ENSG00000177426'
p762
I18
sS'ENSG00000143398'
p763
I1
sS'ENSG00000013573'
p764
I12
sS'ENSG00000124466'
p765
I19
sS'ENSG00000123983'
p766
I2
sS'ENSG00000204514'
p767
I19
sS'ENSG00000092094'
p768
I14
sS'ENSG00000042753'
p769
I19
sS'ENSG00000124507'
p770
I6
sS'ENSG00000127743'
p771
I5
sS'ENSG00000181781'
p772
I19
sS'ENSG00000105053'
p773
I19
sS'ENSG00000031691'
p774
I6
sS'ENSG00000079337'
p775
I12
sS'ENSG00000204540'
p776
I6
sS'ENSG00000079332'
p777
I10
sS'ENSG00000105854'
p778
I7
sS'ENSG00000143093'
p779
I1
sS'ENSG00000079689'
p780
I6
sS'ENSG00000197841'
p781
I19
sS'ENSG00000155313'
p782
I21
sS'ENSG00000166928'
p783
I11
sS'ENSG00000188529'
p784
I1
sS'ENSG00000082482'
p785
I1
sS'ENSG00000114054'
p786
I3
sS'ENSG00000166913'
p787
I20
sS'ENSG00000162928'
p788
I2
sS'ENSG00000168067'
p789
I11
sS'ENSG00000024862'
p790
I6
sS'ENSG00000164099'
p791
I4
sS'ENSG00000154153'
p792
I5
sS'ENSG00000188511'
p793
I22
sS'ENSG00000167325'
p794
I11
sS'ENSG00000186230'
p795
I19
sS'ENSG00000007264'
p796
I19
sS'ENSG00000035681'
p797
I8
sS'ENSG00000185800'
p798
I19
sS'ENSG00000135903'
p799
I2
sS'ENSG00000166321'
p800
I10
sS'ENSG00000183172'
p801
I22
sS'ENSG00000189157'
p802
I4
sS'ENSG00000176842'
p803
I16
sS'ENSG00000185808'
p804
I21
sS'ENSG00000240344'
p805
I2
sS'ENSG00000123349'
p806
I12
sS'ENSG00000172296'
p807
I20
sS'ENSG00000055917'
p808
I2
sS'ENSG00000112110'
p809
I6
sS'ENSG00000183580'
p810
I5
sS'ENSG00000176244'
p811
I10
sS'ENSG00000255374'
p812
I12
sS'ENSG00000111254'
p813
I12
sS'ENSG00000187944'
p814
I2
sS'ENSG00000250506'
p815
I17
sS'ENSG00000163029'
p816
I2
sS'ENSG00000163293'
p817
I4
sS'ENSG00000228716'
p818
I5
sS'ENSG00000149313'
p819
I11
sS'ENSG00000178852'
p820
I17
sS'ENSG00000163666'
p821
I3
sS'ENSG00000146433'
p822
I6
sS'ENSG00000156172'
p823
I8
sS'ENSG00000108819'
p824
I17
sS'ENSG00000115657'
p825
I2
sS'ENSG00000196236'
p826
I22
sS'ENSG00000164334'
p827
I5
sS'ENSG00000184385'
p828
I21
sS'ENSG00000115902'
p829
I2
sS'ENSG00000169302'
p830
I5
sS'ENSG00000172543'
p831
I11
sS'ENSG00000188672'
p832
I1
sS'ENSG00000141519'
p833
I17
sS'ENSG00000241106'
p834
I6
sS'ENSG00000165609'
p835
I10
sS'ENSG00000168411'
p836
I16
sS'ENSG00000125656'
p837
I19
sS'ENSG00000114270'
p838
I3
sS'ENSG00000226174'
p839
I14
sS'ENSG00000108788'
p840
I17
sS'ENSG00000188385'
p841
I10
sS'ENSG00000123119'
p842
I8
sS'ENSG00000187288'
p843
I3
sS'ENSG00000108666'
p844
I17
sS'ENSG00000101445'
p845
I20
sS'ENSG00000106479'
p846
I7
sS'ENSG00000213996'
p847
I19
sS'ENSG00000012124'
p848
I19
sS'ENSG00000163682'
p849
I4
sS'ENSG00000213995'
p850
I13
sS'ENSG00000186523'
p851
I8
sS'ENSG00000112531'
p852
I6
sS'ENSG00000127241'
p853
I3
sS'ENSG00000254858'
p854
I19
sS'ENSG00000259363'
p855
I15
sS'ENSG00000204516'
p856
I6
sS'ENSG00000114988'
p857
I2
sS'ENSG00000196605'
p858
I19
sS'ENSG00000172061'
p859
I3
sS'ENSG00000197442'
p860
I6
sS'ENSG00000198633'
p861
I19
sS'ENSG00000135124'
p862
I12
sS'ENSG00000136238'
p863
I7
sS'ENSG00000184162'
p864
I19
sS'ENSG00000162746'
p865
I1
sS'ENSG00000135643'
p866
I12
sS'ENSG00000071539'
p867
I5
sS'ENSG00000196247'
p868
I7
sS'ENSG00000114757'
p869
I3
sS'ENSG00000185634'
p870
I15
sS'ENSG00000119185'
p871
I2
sS'ENSG00000136167'
p872
I13
sS'ENSG00000185633'
p873
I12
sS'ENSG00000144792'
p874
I3
sS'ENSG00000132017'
p875
I19
sS'ENSG00000172469'
p876
I6
sS'ENSG00000118900'
p877
I16
sS'ENSG00000101350'
p878
I20
sS'ENSG00000166073'
p879
I15
sS'ENSG00000183833'
p880
I3
sS'ENSG00000240764'
p881
I5
sS'ENSG00000163531'
p882
I1
sS'ENSG00000149187'
p883
I11
sS'ENSG00000132383'
p884
I17
sS'ENSG00000149182'
p885
I11
sS'ENSG00000144559'
p886
I3
sS'ENSG00000145020'
p887
I3
sS'ENSG00000084072'
p888
I1
sS'ENSG00000077420'
p889
I10
sS'ENSG00000151923'
p890
I10
sS'ENSG00000177054'
p891
I11
sS'ENSG00000153071'
p892
I5
sS'ENSG00000137266'
p893
I6
sS'ENSG00000183251'
p894
I11
sS'ENSG00000145029'
p895
I3
sS'ENSG00000129473'
p896
I14
sS'ENSG00000112759'
p897
I6
sS'ENSG00000167815'
p898
I19
sS'ENSG00000136193'
p899
I7
sS'ENSG00000179921'
p900
I2
sS'ENSG00000179399'
p901
I13
sS'ENSG00000187689'
p902
I4
sS'ENSG00000116991'
p903
I1
sS'ENSG00000022556'
p904
I19
sS'ENSG00000066629'
p905
I14
sS'ENSG00000108963'
p906
I17
sS'ENSG00000149260'
p907
I11
sS'ENSG00000136425'
p908
I15
sS'ENSG00000173821'
p909
I17
sS'ENSG00000067560'
p910
I3
sS'ENSG00000181392'
p911
I19
sS'ENSG00000165806'
p912
I10
sS'ENSG00000165556'
p913
I13
sS'ENSG00000165555'
p914
I14
sS'ENSG00000184995'
p915
I9
sS'ENSG00000084676'
p916
I2
sS'ENSG00000172803'
p917
I11
sS'ENSG00000105668'
p918
I19
sS'ENSG00000138030'
p919
I2
sS'ENSG00000104219'
p920
I8
sS'ENSG00000138780'
p921
I4
sS'ENSG00000138039'
p922
I2
sS'ENSG00000128655'
p923
I2
sS'ENSG00000148290'
p924
I9
sS'ENSG00000264278'
p925
I18
sS'ENSG00000101457'
p926
I20
sS'ENSG00000205307'
p927
I7
sS'ENSG00000188878'
p928
I17
sS'ENSG00000182134'
p929
I1
sS'ENSG00000196228'
p930
I2
sS'ENSG00000135002'
p931
I9
sS'ENSG00000101752'
p932
I18
sS'ENSG00000128891'
p933
I15
sS'ENSG00000154529'
p934
I9
sS'ENSG00000101751'
p935
I18
sS'ENSG00000005801'
p936
I11
sS'ENSG00000198286'
p937
I7
sS'ENSG00000165895'
p938
I11
sS'ENSG00000137806'
p939
I15
sS'ENSG00000172482'
p940
I2
sS'ENSG00000196950'
p941
I2
sS'ENSG00000090382'
p942
I12
sS'ENSG00000172890'
p943
I11
sS'ENSG00000137745'
p944
I11
sS'ENSG00000242866'
p945
I15
sS'ENSG00000137747'
p946
I11
sS'ENSG00000239282'
p947
I22
sS'ENSG00000137486'
p948
I11
sS'ENSG00000176399'
p949
I9
sS'ENSG00000177731'
p950
I17
sS'ENSG00000158445'
p951
I20
sS'ENSG00000196417'
p952
I19
sS'ENSG00000154803'
p953
I17
sS'ENSG00000196793'
p954
I10
sS'ENSG00000157823'
p955
I15
sS'ENSG00000112541'
p956
I6
sS'ENSG00000167766'
p957
I19
sS'ENSG00000164307'
p958
I5
sS'ENSG00000119977'
p959
I10
sS'ENSG00000165392'
p960
I8
sS'ENSG00000034239'
p961
I8
sS'ENSG00000185414'
p962
I2
sS'ENSG00000125482'
p963
I9
sS'ENSG00000196378'
p964
I8
sS'ENSG00000164308'
p965
I5
sS'ENSG00000256515'
p966
I17
sS'ENSG00000249087'
p967
I1
sS'ENSG00000144810'
p968
I3
sS'ENSG00000160948'
p969
I8
sS'ENSG00000137877'
p970
I15
sS'ENSG00000183549'
p971
I16
sS'ENSG00000189366'
p972
I3
sS'ENSG00000159267'
p973
I21
sS'ENSG00000196313'
p974
I7
sS'ENSG00000150316'
p975
I11
sS'ENSG00000104064'
p976
I15
sS'ENSG00000116675'
p977
I1
sS'ENSG00000126217'
p978
I13
sS'ENSG00000105063'
p979
I19
sS'ENSG00000174652'
p980
I19
sS'ENSG00000141873'
p981
I19
sS'ENSG00000186204'
p982
I19
sS'ENSG00000125630'
p983
I2
sS'ENSG00000131591'
p984
I1
sS'ENSG00000254004'
p985
I19
sS'ENSG00000152223'
p986
I18
sS'ENSG00000197077'
p987
I22
sS'ENSG00000104368'
p988
I8
sS'ENSG00000238243'
p989
I1
sS'ENSG00000181396'
p990
I17
sS'ENSG00000188508'
p991
I19
sS'ENSG00000006042'
p992
I17
sS'ENSG00000076555'
p993
I12
sS'ENSG00000196072'
p994
I10
sS'ENSG00000214253'
p995
I7
sS'ENSG00000164609'
p996
I5
sS'ENSG00000163683'
p997
I4
sS'ENSG00000128408'
p998
I22
sS'ENSG00000140386'
p999
I15
sS'ENSG00000235162'
p1000
I12
sS'ENSG00000116698'
p1001
I1
sS'ENSG00000183891'
p1002
I2
sS'ENSG00000198920'
p1003
I17
sS'ENSG00000122952'
p1004
I10
sS'ENSG00000121289'
p1005
I19
sS'ENSG00000168803'
p1006
I15
sS'ENSG00000104660'
p1007
I8
sS'ENSG00000171806'
p1008
I1
sS'ENSG00000185245'
p1009
I17
sS'ENSG00000100243'
p1010
I22
sS'ENSG00000100714'
p1011
I14
sS'ENSG00000258986'
p1012
I14
sS'ENSG00000165322'
p1013
I10
sS'ENSG00000165325'
p1014
I11
sS'ENSG00000120675'
p1015
I13
sS'ENSG00000175877'
p1016
I7
sS'ENSG00000159461'
p1017
I16
sS'ENSG00000110917'
p1018
I12
sS'ENSG00000125249'
p1019
I13
sS'ENSG00000121350'
p1020
I12
sS'ENSG00000165699'
p1021
I9
sS'ENSG00000138696'
p1022
I4
sS'ENSG00000254852'
p1023
I16
sS'ENSG00000009950'
p1024
I7
sS'ENSG00000106565'
p1025
I7
sS'ENSG00000269676'
p1026
I12
sS'ENSG00000125508'
p1027
I20
sS'ENSG00000104518'
p1028
I8
sS'ENSG00000125505'
p1029
I19
sS'ENSG00000115339'
p1030
I2
sS'ENSG00000110042'
p1031
I11
sS'ENSG00000174885'
p1032
I11
sS'ENSG00000197757'
p1033
I12
sS'ENSG00000120008'
p1034
I10
sS'ENSG00000175376'
p1035
I11
sS'ENSG00000156966'
p1036
I2
sS'ENSG00000147408'
p1037
I8
sS'ENSG00000143543'
p1038
I1
sS'ENSG00000186792'
p1039
I3
sS'ENSG00000143466'
p1040
I1
sS'ENSG00000110768'
p1041
I11
sS'ENSG00000146830'
p1042
I7
sS'ENSG00000134265'
p1043
I18
sS'ENSG00000203791'
p1044
I10
sS'ENSG00000163516'
p1045
I2
sS'ENSG00000156414'
p1046
I14
sS'ENSG00000182534'
p1047
I17
sS'ENSG00000164129'
p1048
I4
sS'ENSG00000128311'
p1049
I22
sS'ENSG00000164124'
p1050
I4
sS'ENSG00000161381'
p1051
I17
sS'ENSG00000164048'
p1052
I3
sS'ENSG00000181240'
p1053
I19
sS'ENSG00000197272'
p1054
I16
sS'ENSG00000171729'
p1055
I1
sS'ENSG00000145945'
p1056
I6
sS'ENSG00000125484'
p1057
I9
sS'ENSG00000140463'
p1058
I15
sS'ENSG00000100146'
p1059
I22
sS'ENSG00000145491'
p1060
I5
sS'ENSG00000155463'
p1061
I14
sS'ENSG00000124126'
p1062
I20
sS'ENSG00000205129'
p1063
I4
sS'ENSG00000106688'
p1064
I9
sS'ENSG00000111361'
p1065
I12
sS'ENSG00000111364'
p1066
I12
sS'ENSG00000153310'
p1067
I8
sS'ENSG00000197106'
p1068
I1
sS'ENSG00000170049'
p1069
I17
sS'ENSG00000167653'
p1070
I8
sS'ENSG00000176715'
p1071
I16
sS'ENSG00000104497'
p1072
I8
sS'ENSG00000125618'
p1073
I2
sS'ENSG00000143256'
p1074
I1
sS'ENSG00000196782'
p1075
I4
sS'ENSG00000106560'
p1076
I7
sS'ENSG00000163798'
p1077
I2
sS'ENSG00000181027'
p1078
I19
sS'ENSG00000169592'
p1079
I16
sS'ENSG00000065320'
p1080
I17
sS'ENSG00000117226'
p1081
I1
sS'ENSG00000175287'
p1082
I9
sS'ENSG00000178623'
p1083
I2
sS'ENSG00000213380'
p1084
I16
sS'ENSG00000198589'
p1085
I4
sS'ENSG00000065328'
p1086
I10
sS'ENSG00000134463'
p1087
I10
sS'ENSG00000140564'
p1088
I15
sS'ENSG00000143971'
p1089
I2
sS'ENSG00000160226'
p1090
I21
sS'ENSG00000134291'
p1091
I12
sS'ENSG00000198035'
p1092
I10
sS'ENSG00000134744'
p1093
I1
sS'ENSG00000106144'
p1094
I7
sS'ENSG00000143149'
p1095
I1
sS'ENSG00000089335'
p1096
I19
sS'ENSG00000129317'
p1097
I12
sS'ENSG00000176953'
p1098
I16
sS'ENSG00000242616'
p1099
I9
sS'ENSG00000021826'
p1100
I2
sS'ENSG00000167792'
p1101
I11
sS'ENSG00000206127'
p1102
I15
sS'ENSG00000164707'
p1103
I7
sS'ENSG00000215114'
p1104
I8
sS'ENSG00000172613'
p1105
I11
sS'ENSG00000167799'
p1106
I11
sS'ENSG00000105991'
p1107
I7
sS'ENSG00000161929'
p1108
I17
sS'ENSG00000178445'
p1109
I9
sS'ENSG00000103365'
p1110
I16
sS'ENSG00000041802'
p1111
I3
sS'ENSG00000120899'
p1112
I8
sS'ENSG00000110148'
p1113
I11
sS'ENSG00000096401'
p1114
I6
sS'ENSG00000179144'
p1115
I7
sS'ENSG00000184307'
p1116
I3
sS'ENSG00000073331'
p1117
I4
sS'ENSG00000169689'
p1118
I17
sS'ENSG00000179148'
p1119
I17
sS'ENSG00000175595'
p1120
I16
sS'ENSG00000115523'
p1121
I2
sS'ENSG00000168778'
p1122
I12
sS'ENSG00000175591'
p1123
I11
sS'ENSG00000167703'
p1124
I17
sS'ENSG00000198515'
p1125
I4
sS'ENSG00000103148'
p1126
I16
sS'ENSG00000124588'
p1127
I6
sS'ENSG00000132911'
p1128
I5
sS'ENSG00000124587'
p1129
I6
sS'ENSG00000176485'
p1130
I11
sS'ENSG00000134905'
p1131
I13
sS'ENSG00000128039'
p1132
I4
sS'ENSG00000163606'
p1133
I3
sS'ENSG00000168653'
p1134
I1
sS'ENSG00000109971'
p1135
I11
sS'ENSG00000168385'
p1136
I2
sS'ENSG00000215346'
p1137
I8
sS'ENSG00000156110'
p1138
I10
sS'ENSG00000183060'
p1139
I15
sS'ENSG00000156113'
p1140
I10
sS'ENSG00000123352'
p1141
I12
sS'ENSG00000100814'
p1142
I14
sS'ENSG00000143924'
p1143
I2
sS'ENSG00000177990'
p1144
I12
sS'ENSG00000100815'
p1145
I14
sS'ENSG00000235878'
p1146
I21
sS'ENSG00000118514'
p1147
I6
sS'ENSG00000111145'
p1148
I12
sS'ENSG00000180776'
p1149
I13
sS'ENSG00000166869'
p1150
I16
sS'ENSG00000239704'
p1151
I17
sS'ENSG00000057019'
p1152
I3
sS'ENSG00000113194'
p1153
I5
sS'ENSG00000111224'
p1154
I12
sS'ENSG00000103479'
p1155
I16
sS'ENSG00000204525'
p1156
I6
sS'ENSG00000146143'
p1157
I6
sS'ENSG00000185880'
p1158
I15
sS'ENSG00000163935'
p1159
I3
sS'ENSG00000132470'
p1160
I17
sS'ENSG00000135723'
p1161
I16
sS'ENSG00000137135'
p1162
I9
sS'ENSG00000054392'
p1163
I1
sS'ENSG00000149679'
p1164
I20
sS'ENSG00000167414'
p1165
I19
sS'ENSG00000107371'
p1166
I9
sS'ENSG00000127399'
p1167
I7
sS'ENSG00000105792'
p1168
I7
sS'ENSG00000142687'
p1169
I1
sS'ENSG00000065457'
p1170
I16
sS'ENSG00000166548'
p1171
I16
sS'ENSG00000259803'
p1172
I16
sS'ENSG00000165943'
p1173
I14
sS'ENSG00000104689'
p1174
I8
sS'ENSG00000214946'
p1175
I17
sS'ENSG00000108679'
p1176
I17
sS'ENSG00000132718'
p1177
I1
sS'ENSG00000115648'
p1178
I2
sS'ENSG00000128965'
p1179
I15
sS'ENSG00000183396'
p1180
I3
sS'ENSG00000183397'
p1181
I19
sS'ENSG00000166261'
p1182
I11
sS'ENSG00000131871'
p1183
I15
sS'ENSG00000204709'
p1184
I6
sS'ENSG00000116157'
p1185
I1
sS'ENSG00000091262'
p1186
I16
sS'ENSG00000248874'
p1187
I5
sS'ENSG00000152402'
p1188
I11
sS'ENSG00000198203'
p1189
I2
sS'ENSG00000184058'
p1190
I22
sS'ENSG00000038002'
p1191
I4
sS'ENSG00000272573'
p1192
I3
sS'ENSG00000151292'
p1193
I5
sS'ENSG00000115364'
p1194
I2
sS'ENSG00000183098'
p1195
I13
sS'ENSG00000075223'
p1196
I7
sS'ENSG00000176222'
p1197
I19
sS'ENSG00000115361'
p1198
I2
sS'ENSG00000125826'
p1199
I20
sS'ENSG00000162631'
p1200
I1
sS'ENSG00000163239'
p1201
I1
sS'ENSG00000118690'
p1202
I6
sS'ENSG00000168229'
p1203
I14
sS'ENSG00000162885'
p1204
I1
sS'ENSG00000177697'
p1205
I11
sS'ENSG00000163945'
p1206
I4
sS'ENSG00000168556'
p1207
I4
sS'ENSG00000188269'
p1208
I19
sS'ENSG00000162736'
p1209
I1
sS'ENSG00000132275'
p1210
I11
sS'ENSG00000132274'
p1211
I11
sS'ENSG00000172232'
p1212
I19
sS'ENSG00000162461'
p1213
I1
sS'ENSG00000060069'
p1214
I18
sS'ENSG00000185627'
p1215
I11
sS'ENSG00000101452'
p1216
I20
sS'ENSG00000162399'
p1217
I1
sS'ENSG00000162398'
p1218
I1
sS'ENSG00000128791'
p1219
I18
sS'ENSG00000243646'
p1220
I21
sS'ENSG00000147439'
p1221
I8
sS'ENSG00000127337'
p1222
I12
sS'ENSG00000142856'
p1223
I1
sS'ENSG00000151917'
p1224
I6
sS'ENSG00000129595'
p1225
I5
sS'ENSG00000109576'
p1226
I4
sS'ENSG00000183323'
p1227
I5
sS'ENSG00000034152'
p1228
I17
sS'ENSG00000177105'
p1229
I11
sS'ENSG00000070423'
p1230
I19
sS'ENSG00000164045'
p1231
I3
sS'ENSG00000145390'
p1232
I4
sS'ENSG00000141252'
p1233
I17
sS'ENSG00000127578'
p1234
I16
sS'ENSG00000179965'
p1235
I16
sS'ENSG00000015171'
p1236
I10
sS'ENSG00000206073'
p1237
I18
sS'ENSG00000179954'
p1238
I19
sS'ENSG00000115568'
p1239
I2
sS'ENSG00000169220'
p1240
I5
sS'ENSG00000141556'
p1241
I17
sS'ENSG00000172123'
p1242
I17
sS'ENSG00000149292'
p1243
I11
sS'ENSG00000127804'
p1244
I17
sS'ENSG00000188163'
p1245
I9
sS'ENSG00000136451'
p1246
I17
sS'ENSG00000100347'
p1247
I22
sS'ENSG00000138639'
p1248
I4
sS'ENSG00000089050'
p1249
I20
sS'ENSG00000154814'
p1250
I3
sS'ENSG00000214491'
p1251
I22
sS'ENSG00000196169'
p1252
I17
sS'ENSG00000233927'
p1253
I19
sS'ENSG00000151725'
p1254
I4
sS'ENSG00000141076'
p1255
I16
sS'ENSG00000112031'
p1256
I6
sS'ENSG00000255837'
p1257
I12
sS'ENSG00000198642'
p1258
I9
sS'ENSG00000136770'
p1259
I10
sS'ENSG00000122481'
p1260
I1
sS'ENSG00000138413'
p1261
I2
sS'ENSG00000125834'
p1262
I20
sS'ENSG00000108296'
p1263
I17
sS'ENSG00000164430'
p1264
I6
sS'ENSG00000222005'
p1265
I2
sS'ENSG00000162069'
p1266
I16
sS'ENSG00000162066'
p1267
I16
sS'ENSG00000162065'
p1268
I16
sS'ENSG00000162063'
p1269
I16
sS'ENSG00000154781'
p1270
I3
sS'ENSG00000182327'
p1271
I17
sS'ENSG00000101442'
p1272
I20
sS'ENSG00000166762'
p1273
I15
sS'ENSG00000213465'
p1274
I11
sS'ENSG00000132953'
p1275
I13
sS'ENSG00000030110'
p1276
I6
sS'ENSG00000101333'
p1277
I20
sS'ENSG00000183431'
p1278
I1
sS'ENSG00000171045'
p1279
I8
sS'ENSG00000084110'
p1280
I12
sS'ENSG00000113262'
p1281
I5
sS'ENSG00000084112'
p1282
I12
sS'ENSG00000214309'
p1283
I7
sS'ENSG00000162669'
p1284
I1
sS'ENSG00000070731'
p1285
I17
sS'ENSG00000204120'
p1286
I2
sS'ENSG00000075303'
p1287
I7
sS'ENSG00000172478'
p1288
I2
sS'ENSG00000004139'
p1289
I17
sS'ENSG00000173209'
p1290
I2
sS'ENSG00000184012'
p1291
I21
sS'ENSG00000074317'
p1292
I5
sS'ENSG00000172869'
p1293
I5
sS'ENSG00000135047'
p1294
I9
sS'ENSG00000122435'
p1295
I1
sS'ENSG00000056736'
p1296
I3
sS'ENSG00000186106'
p1297
I8
sS'ENSG00000178209'
p1298
I8
sS'ENSG00000082898'
p1299
I2
sS'ENSG00000130201'
p1300
I19
sS'ENSG00000104472'
p1301
I8
sS'ENSG00000130203'
p1302
I19
sS'ENSG00000122548'
p1303
I7
sS'ENSG00000235478'
p1304
I22
sS'ENSG00000183111'
p1305
I5
sS'ENSG00000174564'
p1306
I3
sS'ENSG00000240849'
p1307
I20
sS'ENSG00000196812'
p1308
I6
sS'ENSG00000119965'
p1309
I10
sS'ENSG00000155592'
p1310
I16
sS'ENSG00000116198'
p1311
I1
sS'ENSG00000119969'
p1312
I10
sS'ENSG00000144161'
p1313
I2
sS'ENSG00000100413'
p1314
I22
sS'ENSG00000185404'
p1315
I2
sS'ENSG00000055483'
p1316
I17
sS'ENSG00000010278'
p1317
I12
sS'ENSG00000198854'
p1318
I1
sS'ENSG00000131094'
p1319
I17
sS'ENSG00000188636'
p1320
I22
sS'ENSG00000149922'
p1321
I16
sS'ENSG00000130684'
p1322
I20
sS'ENSG00000111863'
p1323
I6
sS'ENSG00000196365'
p1324
I19
sS'ENSG00000152894'
p1325
I6
sS'ENSG00000130921'
p1326
I12
sS'ENSG00000267855'
p1327
I19
sS'ENSG00000116661'
p1328
I1
sS'ENSG00000113396'
p1329
I5
sS'ENSG00000145949'
p1330
I6
sS'ENSG00000196242'
p1331
I1
sS'ENSG00000112139'
p1332
I6
sS'ENSG00000122643'
p1333
I7
sS'ENSG00000139865'
p1334
I14
sS'ENSG00000130517'
p1335
I19
sS'ENSG00000161542'
p1336
I17
sS'ENSG00000161544'
p1337
I17
sS'ENSG00000196104'
p1338
I4
sS'ENSG00000197980'
p1339
I3
sS'ENSG00000197599'
p1340
I16
sS'ENSG00000232774'
p1341
I14
sS'ENSG00000054219'
p1342
I2
sS'ENSG00000183889'
p1343
I16
sS'ENSG00000213077'
p1344
I17
sS'ENSG00000122477'
p1345
I1
sS'ENSG00000162994'
p1346
I2
sS'ENSG00000196966'
p1347
I6
sS'ENSG00000178295'
p1348
I2
sS'ENSG00000185271'
p1349
I14
sS'ENSG00000204644'
p1350
I6
sS'ENSG00000197568'
p1351
I1
sS'ENSG00000120645'
p1352
I12
sS'ENSG00000120647'
p1353
I12
sS'ENSG00000011007'
p1354
I1
sS'ENSG00000213672'
p1355
I3
sS'ENSG00000107554'
p1356
I10
sS'ENSG00000130414'
p1357
I2
sS'ENSG00000146833'
p1358
I7
sS'ENSG00000185475'
p1359
I11
sS'ENSG00000171819'
p1360
I1
sS'ENSG00000197563'
p1361
I18
sS'ENSG00000118200'
p1362
I1
sS'ENSG00000196565'
p1363
I11
sS'ENSG00000100312'
p1364
I22
sS'ENSG00000101158'
p1365
I20
sS'ENSG00000125337'
p1366
I6
sS'ENSG00000113790'
p1367
I3
sS'ENSG00000174007'
p1368
I3
sS'ENSG00000159479'
p1369
I1
sS'ENSG00000079102'
p1370
I8
sS'ENSG00000125998'
p1371
I20
sS'ENSG00000158122'
p1372
I9
sS'ENSG00000110074'
p1373
I11
sS'ENSG00000110076'
p1374
I11
sS'ENSG00000075461'
p1375
I17
sS'ENSG00000123636'
p1376
I2
sS'ENSG00000104852'
p1377
I19
sS'ENSG00000104853'
p1378
I19
sS'ENSG00000171786'
p1379
I1
sS'ENSG00000103855'
p1380
I15
sS'ENSG00000171574'
p1381
I19
sS'ENSG00000146426'
p1382
I6
sS'ENSG00000091640'
p1383
I17
sS'ENSG00000269190'
p1384
I19
sS'ENSG00000143554'
p1385
I1
sS'ENSG00000203666'
p1386
I1
sS'ENSG00000145700'
p1387
I5
sS'ENSG00000168872'
p1388
I16
sS'ENSG00000169629'
p1389
I2
sS'ENSG00000182446'
p1390
I17
sS'ENSG00000134215'
p1391
I1
sS'ENSG00000121380'
p1392
I12
sS'ENSG00000101337'
p1393
I20
sS'ENSG00000180992'
p1394
I6
sS'ENSG00000198736'
p1395
I16
sS'ENSG00000032742'
p1396
I13
sS'ENSG00000106733'
p1397
I9
sS'ENSG00000115598'
p1398
I2
sS'ENSG00000182685'
p1399
I16
sS'ENSG00000223510'
p1400
I17
sS'ENSG00000182931'
p1401
I20
sS'ENSG00000164112'
p1402
I4
sS'ENSG00000137161'
p1403
I6
sS'ENSG00000129250'
p1404
I17
sS'ENSG00000139168'
p1405
I12
sS'ENSG00000178386'
p1406
I19
sS'ENSG00000103202'
p1407
I16
sS'ENSG00000152749'
p1408
I13
sS'ENSG00000100890'
p1409
I14
sS'ENSG00000124116'
p1410
I20
sS'ENSG00000197448'
p1411
I7
sS'ENSG00000140471'
p1412
I15
sS'ENSG00000107521'
p1413
I10
sS'ENSG00000171860'
p1414
I12
sS'ENSG00000197362'
p1415
I7
sS'ENSG00000173567'
p1416
I2
sS'ENSG00000011426'
p1417
I7
sS'ENSG00000134852'
p1418
I4
sS'ENSG00000164615'
p1419
I5
sS'ENSG00000153443'
p1420
I16
sS'ENSG00000197134'
p1421
I19
sS'ENSG00000160539'
p1422
I9
sS'ENSG00000197136'
p1423
I11
sS'ENSG00000255284'
p1424
I11
sS'ENSG00000197915'
p1425
I1
sS'ENSG00000175104'
p1426
I11
sS'ENSG00000197912'
p1427
I16
sS'ENSG00000155975'
p1428
I8
sS'ENSG00000185009'
p1429
I10
sS'ENSG00000214367'
p1430
I4
sS'ENSG00000176209'
p1431
I8
sS'ENSG00000127947'
p1432
I7
sS'ENSG00000180902'
p1433
I2
sS'ENSG00000146054'
p1434
I5
sS'ENSG00000137218'
p1435
I6
sS'ENSG00000008517'
p1436
I16
sS'ENSG00000110786'
p1437
I11
sS'ENSG00000134758'
p1438
I18
sS'ENSG00000134759'
p1439
I18
sS'ENSG00000198026'
p1440
I20
sS'ENSG00000081985'
p1441
I1
sS'ENSG00000238227'
p1442
I9
sS'ENSG00000143258'
p1443
I1
sS'ENSG00000118322'
p1444
I5
sS'ENSG00000140598'
p1445
I15
sS'ENSG00000243137'
p1446
I19
sS'ENSG00000134283'
p1447
I12
sS'ENSG00000161328'
p1448
I11
sS'ENSG00000171044'
p1449
I8
sS'ENSG00000168785'
p1450
I4
sS'ENSG00000163864'
p1451
I3
sS'ENSG00000161326'
p1452
I17
sS'ENSG00000107736'
p1453
I10
sS'ENSG00000203965'
p1454
I1
sS'ENSG00000168090'
p1455
I7
sS'ENSG00000065665'
p1456
I10
sS'ENSG00000106344'
p1457
I7
sS'ENSG00000167014'
p1458
I15
sS'ENSG00000106346'
p1459
I7
sS'ENSG00000186806'
p1460
I19
sS'ENSG00000078098'
p1461
I2
sS'ENSG00000100330'
p1462
I22
sS'ENSG00000111731'
p1463
I12
sS'ENSG00000167637'
p1464
I19
sS'ENSG00000198208'
p1465
I14
sS'ENSG00000171049'
p1466
I19
sS'ENSG00000127364'
p1467
I7
sS'ENSG00000188312'
p1468
I9
sS'ENSG00000079313'
p1469
I19
sS'ENSG00000103550'
p1470
I16
sS'ENSG00000053108'
p1471
I5
sS'ENSG00000137413'
p1472
I6
sS'ENSG00000139579'
p1473
I12
sS'ENSG00000239665'
p1474
I10
sS'ENSG00000168395'
p1475
I2
sS'ENSG00000205464'
p1476
I5
sS'ENSG00000169902'
p1477
I7
sS'ENSG00000057704'
p1478
I12
sS'ENSG00000065268'
p1479
I19
sS'ENSG00000011143'
p1480
I17
sS'ENSG00000135407'
p1481
I12
sS'ENSG00000107937'
p1482
I10
sS'ENSG00000107938'
p1483
I10
sS'ENSG00000179776'
p1484
I16
sS'ENSG00000167632'
p1485
I8
sS'ENSG00000131067'
p1486
I20
sS'ENSG00000152061'
p1487
I1
sS'ENSG00000175582'
p1488
I11
sS'ENSG00000110090'
p1489
I11
sS'ENSG00000167657'
p1490
I19
sS'ENSG00000143632'
p1491
I1
sS'ENSG00000143631'
p1492
I1
sS'ENSG00000169062'
p1493
I13
sS'ENSG00000072135'
p1494
I2
sS'ENSG00000102935'
p1495
I16
sS'ENSG00000090316'
p1496
I4
sS'ENSG00000171444'
p1497
I5
sS'ENSG00000106511'
p1498
I7
sS'ENSG00000157343'
p1499
I6
sS'ENSG00000103326'
p1500
I16
sS'ENSG00000163631'
p1501
I4
sS'ENSG00000152990'
p1502
I4
sS'ENSG00000132142'
p1503
I17
sS'ENSG00000147535'
p1504
I8
sS'ENSG00000135390'
p1505
I12
sS'ENSG00000144867'
p1506
I3
sS'ENSG00000123737'
p1507
I4
sS'ENSG00000132024'
p1508
I19
sS'ENSG00000196335'
p1509
I7
sS'ENSG00000109163'
p1510
I4
sS'ENSG00000095485'
p1511
I10
sS'ENSG00000237541'
p1512
I6
sS'ENSG00000075131'
p1513
I15
sS'ENSG00000187922'
p1514
I9
sS'ENSG00000123329'
p1515
I12
sS'ENSG00000083097'
p1516
I6
sS'ENSG00000152154'
p1517
I2
sS'ENSG00000103723'
p1518
I15
sS'ENSG00000183605'
p1519
I10
sS'ENSG00000204538'
p1520
I6
sS'ENSG00000178934'
p1521
I19
sS'ENSG00000178935'
p1522
I19
sS'ENSG00000006652'
p1523
I7
sS'ENSG00000198033'
p1524
I13
sS'ENSG00000135245'
p1525
I7
sS'ENSG00000204533'
p1526
I19
sS'ENSG00000166971'
p1527
I16
sS'ENSG00000149547'
p1528
I11
sS'ENSG00000068024'
p1529
I2
sS'ENSG00000164241'
p1530
I5
sS'ENSG00000168306'
p1531
I3
sS'ENSG00000161265'
p1532
I19
sS'ENSG00000151348'
p1533
I11
sS'ENSG00000212127'
p1534
I12
sS'ENSG00000074181'
p1535
I19
sS'ENSG00000088986'
p1536
I12
sS'ENSG00000163041'
p1537
I1
sS'ENSG00000162654'
p1538
I1
sS'ENSG00000188611'
p1539
I10
sS'ENSG00000090520'
p1540
I3
sS'ENSG00000162650'
p1541
I1
sS'ENSG00000131848'
p1542
I19
sS'ENSG00000168539'
p1543
I11
sS'ENSG00000132313'
p1544
I2
sS'ENSG00000131845'
p1545
I19
sS'ENSG00000108602'
p1546
I17
sS'ENSG00000177688'
p1547
I6
sS'ENSG00000185917'
p1548
I21
sS'ENSG00000136286'
p1549
I7
sS'ENSG00000105641'
p1550
I19
sS'ENSG00000066084'
p1551
I12
sS'ENSG00000131966'
p1552
I14
sS'ENSG00000180767'
p1553
I3
sS'ENSG00000055955'
p1554
I3
sS'ENSG00000165171'
p1555
I7
sS'ENSG00000099331'
p1556
I19
sS'ENSG00000100350'
p1557
I22
sS'ENSG00000148908'
p1558
I10
sS'ENSG00000204653'
p1559
I19
sS'ENSG00000140367'
p1560
I15
sS'ENSG00000180113'
p1561
I6
sS'ENSG00000239713'
p1562
I22
sS'ENSG00000125531'
p1563
I20
sS'ENSG00000112761'
p1564
I6
sS'ENSG00000091513'
p1565
I3
sS'ENSG00000133703'
p1566
I12
sS'ENSG00000152778'
p1567
I10
sS'ENSG00000105793'
p1568
I7
sS'ENSG00000116539'
p1569
I1
sS'ENSG00000184517'
p1570
I16
sS'ENSG00000127445'
p1571
I19
sS'ENSG00000033122'
p1572
I1
sS'ENSG00000188373'
p1573
I10
sS'ENSG00000101246'
p1574
I20
sS'ENSG00000163221'
p1575
I1
sS'ENSG00000168546'
p1576
I8
sS'ENSG00000118197'
p1577
I1
sS'ENSG00000137216'
p1578
I6
sS'ENSG00000115423'
p1579
I2
sS'ENSG00000069869'
p1580
I15
sS'ENSG00000259511'
p1581
I15
sS'ENSG00000096088'
p1582
I6
sS'ENSG00000127863'
p1583
I13
sS'ENSG00000149231'
p1584
I11
sS'ENSG00000148343'
p1585
I9
sS'ENSG00000136068'
p1586
I3
sS'ENSG00000184206'
p1587
I15
sS'ENSG00000226321'
p1588
I2
sS'ENSG00000164118'
p1589
I4
sS'ENSG00000101236'
p1590
I20
sS'ENSG00000071994'
p1591
I6
sS'ENSG00000128829'
p1592
I15
sS'ENSG00000158710'
p1593
I1
sS'ENSG00000048544'
p1594
I6
sS'ENSG00000095059'
p1595
I19
sS'ENSG00000197768'
p1596
I9
sS'ENSG00000186529'
p1597
I19
sS'ENSG00000187583'
p1598
I1
sS'ENSG00000152503'
p1599
I5
sS'ENSG00000173327'
p1600
I11
sS'ENSG00000116977'
p1601
I1
sS'ENSG00000127463'
p1602
I1
sS'ENSG00000188573'
p1603
I5
sS'ENSG00000136448'
p1604
I17
sS'ENSG00000136449'
p1605
I17
sS'ENSG00000172640'
p1606
I12
sS'ENSG00000116791'
p1607
I1
sS'ENSG00000147576'
p1608
I8
sS'ENSG00000139620'
p1609
I12
sS'ENSG00000185480'
p1610
I12
sS'ENSG00000137713'
p1611
I11
sS'ENSG00000158560'
p1612
I7
sS'ENSG00000147813'
p1613
I8
sS'ENSG00000138152'
p1614
I10
sS'ENSG00000143748'
p1615
I1
sS'ENSG00000112029'
p1616
I6
sS'ENSG00000164535'
p1617
I7
sS'ENSG00000167380'
p1618
I19
sS'ENSG00000147689'
p1619
I8
sS'ENSG00000108349'
p1620
I17
sS'ENSG00000205281'
p1621
I15
sS'ENSG00000125827'
p1622
I20
sS'ENSG00000267508'
p1623
I19
sS'ENSG00000084092'
p1624
I4
sS'ENSG00000182117'
p1625
I15
sS'ENSG00000213551'
p1626
I10
sS'ENSG00000205323'
p1627
I12
sS'ENSG00000183426'
p1628
I16
sS'ENSG00000096433'
p1629
I6
sS'ENSG00000186141'
p1630
I1
sS'ENSG00000214078'
p1631
I20
sS'ENSG00000100336'
p1632
I22
sS'ENSG00000101307'
p1633
I20
sS'ENSG00000008294'
p1634
I17
sS'ENSG00000183346'
p1635
I10
sS'ENSG00000109511'
p1636
I4
sS'ENSG00000254521'
p1637
I19
sS'ENSG00000137073'
p1638
I9
sS'ENSG00000039600'
p1639
I5
sS'ENSG00000137944'
p1640
I1
sS'ENSG00000163808'
p1641
I3
sS'ENSG00000162783'
p1642
I1
sS'ENSG00000158042'
p1643
I11
sS'ENSG00000186453'
p1644
I2
sS'ENSG00000086967'
p1645
I19
sS'ENSG00000136147'
p1646
I13
sS'ENSG00000120742'
p1647
I3
sS'ENSG00000109790'
p1648
I4
sS'ENSG00000172731'
p1649
I10
sS'ENSG00000115380'
p1650
I2
sS'ENSG00000153832'
p1651
I2
sS'ENSG00000174371'
p1652
I1
sS'ENSG00000050405'
p1653
I12
sS'ENSG00000174373'
p1654
I14
sS'ENSG00000138100'
p1655
I2
sS'ENSG00000119048'
p1656
I5
sS'ENSG00000196591'
p1657
I6
sS'ENSG00000086061'
p1658
I9
sS'ENSG00000213132'
p1659
I3
sS'ENSG00000172915'
p1660
I13
sS'ENSG00000227345'
p1661
I10
sS'ENSG00000173581'
p1662
I19
sS'ENSG00000026950'
p1663
I6
sS'ENSG00000163312'
p1664
I4
sS'ENSG00000100461'
p1665
I14
sS'ENSG00000165502'
p1666
I14
sS'ENSG00000125912'
p1667
I19
sS'ENSG00000165507'
p1668
I10
sS'ENSG00000128609'
p1669
I7
sS'ENSG00000180667'
p1670
I1
sS'ENSG00000149932'
p1671
I16
sS'ENSG00000198846'
p1672
I8
sS'ENSG00000108231'
p1673
I10
sS'ENSG00000205212'
p1674
I17
sS'ENSG00000182749'
p1675
I1
sS'ENSG00000104164'
p1676
I15
sS'ENSG00000236104'
p1677
I6
sS'ENSG00000213523'
p1678
I5
sS'ENSG00000159363'
p1679
I1
sS'ENSG00000126231'
p1680
I13
sS'ENSG00000132305'
p1681
I2
sS'ENSG00000101425'
p1682
I20
sS'ENSG00000113946'
p1683
I3
sS'ENSG00000154227'
p1684
I15
sS'ENSG00000204228'
p1685
I6
sS'ENSG00000196277'
p1686
I3
sS'ENSG00000130522'
p1687
I19
sS'ENSG00000065060'
p1688
I6
sS'ENSG00000213214'
p1689
I7
sS'ENSG00000085117'
p1690
I11
sS'ENSG00000122304'
p1691
I16
sS'ENSG00000254415'
p1692
I19
sS'ENSG00000160862'
p1693
I7
sS'ENSG00000001460'
p1694
I1
sS'ENSG00000196502'
p1695
I16
sS'ENSG00000174516'
p1696
I11
sS'ENSG00000117640'
p1697
I1
sS'ENSG00000178187'
p1698
I5
sS'ENSG00000121653'
p1699
I11
sS'ENSG00000154914'
p1700
I17
sS'ENSG00000178301'
p1701
I11
sS'ENSG00000164190'
p1702
I5
sS'ENSG00000113263'
p1703
I5
sS'ENSG00000242715'
p1704
I13
sS'ENSG00000182601'
p1705
I16
sS'ENSG00000100288'
p1706
I22
sS'ENSG00000122877'
p1707
I10
sS'ENSG00000129128'
p1708
I4
sS'ENSG00000049323'
p1709
I2
sS'ENSG00000183733'
p1710
I2
sS'ENSG00000184992'
p1711
I12
sS'ENSG00000196189'
p1712
I1
sS'ENSG00000099984'
p1713
I22
sS'ENSG00000256812'
p1714
I16
sS'ENSG00000170802'
p1715
I2
sS'ENSG00000100304'
p1716
I22
sS'ENSG00000099821'
p1717
I19
sS'ENSG00000223496'
p1718
I16
sS'ENSG00000051108'
p1719
I16
sS'ENSG00000150347'
p1720
I10
sS'ENSG00000001084'
p1721
I6
sS'ENSG00000135336'
p1722
I6
sS'ENSG00000076258'
p1723
I1
sS'ENSG00000250067'
p1724
I19
sS'ENSG00000254667'
p1725
I11
sS'ENSG00000183793'
p1726
I16
sS'ENSG00000196476'
p1727
I20
sS'ENSG00000164691'
p1728
I6
sS'ENSG00000110060'
p1729
I11
sS'ENSG00000105849'
p1730
I7
sS'ENSG00000007933'
p1731
I1
sS'ENSG00000171772'
p1732
I10
sS'ENSG00000079134'
p1733
I18
sS'ENSG00000197734'
p1734
I14
sS'ENSG00000170270'
p1735
I14
sS'ENSG00000120539'
p1736
I10
sS'ENSG00000110700'
p1737
I11
sS'ENSG00000232112'
p1738
I3
sS'ENSG00000175216'
p1739
I11
sS'ENSG00000140299'
p1740
I15
sS'ENSG00000175352'
p1741
I11
sS'ENSG00000110660'
p1742
I11
sS'ENSG00000217702'
p1743
I2
sS'ENSG00000175356'
p1744
I11
sS'ENSG00000174194'
p1745
I10
sS'ENSG00000153786'
p1746
I16
sS'ENSG00000174196'
p1747
I10
sS'ENSG00000204520'
p1748
I6
sS'ENSG00000139055'
p1749
I12
sS'ENSG00000169203'
p1750
I16
sS'ENSG00000213015'
p1751
I19
sS'ENSG00000182512'
p1752
I14
sS'ENSG00000164100'
p1753
I4
sS'ENSG00000182923'
p1754
I3
sS'ENSG00000155367'
p1755
I1
sS'ENSG00000134200'
p1756
I1
sS'ENSG00000144035'
p1757
I2
sS'ENSG00000148341'
p1758
I9
sS'ENSG00000171703'
p1759
I20
sS'ENSG00000196693'
p1760
I10
sS'ENSG00000044115'
p1761
I5
sS'ENSG00000099910'
p1762
I22
sS'ENSG00000133460'
p1763
I22
sS'ENSG00000136689'
p1764
I2
sS'ENSG00000242852'
p1765
I19
sS'ENSG00000162782'
p1766
I1
sS'ENSG00000125450'
p1767
I17
sS'ENSG00000148303'
p1768
I9
sS'ENSG00000159023'
p1769
I1
sS'ENSG00000186716'
p1770
I22
sS'ENSG00000176732'
p1771
I2
sS'ENSG00000243156'
p1772
I22
sS'ENSG00000160294'
p1773
I21
sS'ENSG00000080298'
p1774
I9
sS'ENSG00000120322'
p1775
I5
sS'ENSG00000214694'
p1776
I2
sS'ENSG00000197647'
p1777
I19
sS'ENSG00000151640'
p1778
I10
sS'ENSG00000175137'
p1779
I1
sS'ENSG00000117266'
p1780
I1
sS'ENSG00000134201'
p1781
I1
sS'ENSG00000197128'
p1782
I19
sS'ENSG00000173918'
p1783
I17
sS'ENSG00000180938'
p1784
I8
sS'ENSG00000171680'
p1785
I1
sS'ENSG00000269337'
p1786
I9
sS'ENSG00000160318'
p1787
I19
sS'ENSG00000104835'
p1788
I19
sS'ENSG00000164904'
p1789
I5
sS'ENSG00000135837'
p1790
I1
sS'ENSG00000156261'
p1791
I21
sS'ENSG00000185055'
p1792
I7
sS'ENSG00000134444'
p1793
I18
sS'ENSG00000122687'
p1794
I7
sS'ENSG00000143248'
p1795
I1
sS'ENSG00000146729'
p1796
I7
sS'ENSG00000248801'
p1797
I8
sS'ENSG00000094914'
p1798
I12
sS'ENSG00000160201'
p1799
I21
sS'ENSG00000171174'
p1800
I2
sS'ENSG00000213088'
p1801
I1
sS'ENSG00000185088'
p1802
I15
sS'ENSG00000140612'
p1803
I15
sS'ENSG00000204001'
p1804
I9
sS'ENSG00000170484'
p1805
I12
sS'ENSG00000267680'
p1806
I19
sS'ENSG00000110888'
p1807
I12
sS'ENSG00000101052'
p1808
I20
sS'ENSG00000183850'
p1809
I19
sS'ENSG00000106477'
p1810
I7
sS'ENSG00000261652'
p1811
I15
sS'ENSG00000115310'
p1812
I2
sS'ENSG00000268211'
p1813
I9
sS'ENSG00000103642'
p1814
I15
sS'ENSG00000188687'
p1815
I2
sS'ENSG00000171425'
p1816
I19
sS'ENSG00000124224'
p1817
I20
sS'ENSG00000142794'
p1818
I1
sS'ENSG00000064270'
p1819
I16
sS'ENSG00000269526'
p1820
I19
sS'ENSG00000171055'
p1821
I2
sS'ENSG00000188389'
p1822
I2
sS'ENSG00000133706'
p1823
I5
sS'ENSG00000155816'
p1824
I1
sS'ENSG00000139200'
p1825
I12
sS'ENSG00000161905'
p1826
I17
sS'ENSG00000181031'
p1827
I17
sS'ENSG00000110244'
p1828
I11
sS'ENSG00000179165'
p1829
I6
sS'ENSG00000139364'
p1830
I12
sS'ENSG00000147324'
p1831
I8
sS'ENSG00000241484'
p1832
I22
sS'ENSG00000076924'
p1833
I19
sS'ENSG00000272047'
p1834
I6
sS'ENSG00000134532'
p1835
I12
sS'ENSG00000197555'
p1836
I14
sS'ENSG00000168016'
p1837
I3
sS'ENSG00000129292'
p1838
I8
sS'ENSG00000134020'
p1839
I8
sS'ENSG00000198478'
p1840
I6
sS'ENSG00000167311'
p1841
I11
sS'ENSG00000169016'
p1842
I2
sS'ENSG00000095261'
p1843
I9
sS'ENSG00000168159'
p1844
I1
sS'ENSG00000111837'
p1845
I6
sS'ENSG00000160117'
p1846
I19
sS'ENSG00000171903'
p1847
I19
sS'ENSG00000088298'
p1848
I20
sS'ENSG00000167468'
p1849
I19
sS'ENSG00000114544'
p1850
I3
sS'ENSG00000154252'
p1851
I2
sS'ENSG00000163608'
p1852
I3
sS'ENSG00000105497'
p1853
I19
sS'ENSG00000181467'
p1854
I3
sS'ENSG00000167460'
p1855
I19
sS'ENSG00000167461'
p1856
I19
sS'ENSG00000142188'
p1857
I21
sS'ENSG00000135926'
p1858
I2
sS'ENSG00000182851'
p1859
I8
sS'ENSG00000129946'
p1860
I19
sS'ENSG00000177469'
p1861
I17
sS'ENSG00000184185'
p1862
I17
sS'ENSG00000151806'
p1863
I4
sS'ENSG00000175643'
p1864
I16
sS'ENSG00000162813'
p1865
I1
sS'ENSG00000166847'
p1866
I16
sS'ENSG00000136875'
p1867
I9
sS'ENSG00000136874'
p1868
I9
sS'ENSG00000203827'
p1869
I1
sS'ENSG00000087076'
p1870
I19
sS'ENSG00000143375'
p1871
I1
sS'ENSG00000159069'
p1872
I9
sS'ENSG00000179111'
p1873
I17
sS'ENSG00000163812'
p1874
I3
sS'ENSG00000261052'
p1875
I16
sS'ENSG00000102858'
p1876
I16
sS'ENSG00000157637'
p1877
I17
sS'ENSG00000156042'
p1878
I10
sS'ENSG00000077800'
p1879
I7
sS'ENSG00000131771'
p1880
I17
sS'ENSG00000167005'
p1881
I16
sS'ENSG00000078549'
p1882
I7
sS'ENSG00000105771'
p1883
I19
sS'ENSG00000244476'
p1884
I6
sS'ENSG00000188211'
p1885
I11
sS'ENSG00000128944'
p1886
I15
sS'ENSG00000214140'
p1887
I17
sS'ENSG00000141756'
p1888
I17
sS'ENSG00000100422'
p1889
I22
sS'ENSG00000198792'
p1890
I22
sS'ENSG00000136279'
p1891
I7
sS'ENSG00000226124'
p1892
I2
sS'ENSG00000145088'
p1893
I3
sS'ENSG00000183137'
p1894
I6
sS'ENSG00000165238'
p1895
I9
sS'ENSG00000177888'
p1896
I1
sS'ENSG00000108759'
p1897
I17
sS'ENSG00000177885'
p1898
I17
sS'ENSG00000240654'
p1899
I13
sS'ENSG00000154645'
p1900
I21
sS'ENSG00000180104'
p1901
I5
sS'ENSG00000024526'
p1902
I1
sS'ENSG00000141401'
p1903
I18
sS'ENSG00000188690'
p1904
I10
sS'ENSG00000163393'
p1905
I1
sS'ENSG00000176208'
p1906
I17
sS'ENSG00000152102'
p1907
I2
sS'ENSG00000188368'
p1908
I19
sS'ENSG00000132031'
p1909
I2
sS'ENSG00000132256'
p1910
I11
sS'ENSG00000104435'
p1911
I8
sS'ENSG00000178952'
p1912
I16
sS'ENSG00000135778'
p1913
I1
sS'ENSG00000135951'
p1914
I2
sS'ENSG00000135773'
p1915
I1
sS'ENSG00000268182'
p1916
I19
sS'ENSG00000179299'
p1917
I4
sS'ENSG00000115825'
p1918
I2
sS'ENSG00000136011'
p1919
I12
sS'ENSG00000108592'
p1920
I17
sS'ENSG00000248333'
p1921
I1
sS'ENSG00000138642'
p1922
I4
sS'ENSG00000136014'
p1923
I12
sS'ENSG00000165646'
p1924
I10
sS'ENSG00000188130'
p1925
I22
sS'ENSG00000115944'
p1926
I2
sS'ENSG00000115282'
p1927
I2
sS'ENSG00000213889'
p1928
I19
sS'ENSG00000132740'
p1929
I11
sS'ENSG00000142973'
p1930
I1
sS'ENSG00000105072'
p1931
I19
sS'ENSG00000153029'
p1932
I1
sS'ENSG00000168259'
p1933
I17
sS'ENSG00000177082'
p1934
I15
sS'ENSG00000101224'
p1935
I20
sS'ENSG00000112812'
p1936
I6
sS'ENSG00000237172'
p1937
I16
sS'ENSG00000105376'
p1938
I19
sS'ENSG00000187595'
p1939
I17
sS'ENSG00000002933'
p1940
I7
sS'ENSG00000167861'
p1941
I17
sS'ENSG00000128394'
p1942
I22
sS'ENSG00000051382'
p1943
I3
sS'ENSG00000070404'
p1944
I19
sS'ENSG00000173421'
p1945
I3
sS'ENSG00000188785'
p1946
I19
sS'ENSG00000179979'
p1947
I4
sS'ENSG00000204531'
p1948
I6
sS'ENSG00000162148'
p1949
I11
sS'ENSG00000166199'
p1950
I11
sS'ENSG00000119242'
p1951
I12
sS'ENSG00000008282'
p1952
I7
sS'ENSG00000163933'
p1953
I3
sS'ENSG00000172531'
p1954
I11
sS'ENSG00000108582'
p1955
I17
sS'ENSG00000124721'
p1956
I6
sS'ENSG00000184005'
p1957
I1
sS'ENSG00000214967'
p1958
I16
sS'ENSG00000136371'
p1959
I15
sS'ENSG00000148484'
p1960
I10
sS'ENSG00000115750'
p1961
I2
sS'ENSG00000146409'
p1962
I6
sS'ENSG00000109133'
p1963
I4
sS'ENSG00000172361'
p1964
I18
sS'ENSG00000227051'
p1965
I14
sS'ENSG00000141295'
p1966
I17
sS'ENSG00000141294'
p1967
I17
sS'ENSG00000137709'
p1968
I11
sS'ENSG00000112394'
p1969
I6
sS'ENSG00000173480'
p1970
I19
sS'ENSG00000182004'
p1971
I1
sS'ENSG00000128683'
p1972
I2
sS'ENSG00000167034'
p1973
I8
sS'ENSG00000162365'
p1974
I1
sS'ENSG00000063241'
p1975
I19
sS'ENSG00000101134'
p1976
I20
sS'ENSG00000133195'
p1977
I17
sS'ENSG00000205356'
p1978
I7
sS'ENSG00000114933'
p1979
I2
sS'ENSG00000080345'
p1980
I2
sS'ENSG00000196152'
p1981
I9
sS'ENSG00000213402'
p1982
I11
sS'ENSG00000186470'
p1983
I6
sS'ENSG00000166426'
p1984
I15
sS'ENSG00000137210'
p1985
I6
sS'ENSG00000089558'
p1986
I17
sS'ENSG00000173262'
p1987
I12
sS'ENSG00000167916'
p1988
I17
sS'ENSG00000225830'
p1989
I10
sS'ENSG00000073849'
p1990
I3
sS'ENSG00000166582'
p1991
I17
sS'ENSG00000221983'
p1992
I19
sS'ENSG00000260230'
p1993
I9
sS'ENSG00000157322'
p1994
I16
sS'ENSG00000133048'
p1995
I1
sS'ENSG00000213347'
p1996
I5
sS'ENSG00000121903'
p1997
I1
sS'ENSG00000157326'
p1998
I14
sS'ENSG00000165119'
p1999
I9
sS'ENSG00000186468'
p2000
I5
sS'ENSG00000070087'
p2001
I3
sS'ENSG00000112576'
p2002
I6
sS'ENSG00000219481'
p2003
I1
sS'ENSG00000116783'
p2004
I1
sS'ENSG00000130540'
p2005
I22
sS'ENSG00000159388'
p2006
I1
sS'ENSG00000119943'
p2007
I10
sS'ENSG00000254470'
p2008
I11
sS'ENSG00000141127'
p2009
I17
sS'ENSG00000173988'
p2010
I13
sS'ENSG00000165512'
p2011
I10
sS'ENSG00000144182'
p2012
I2
sS'ENSG00000182774'
p2013
I15
sS'ENSG00000164597'
p2014
I7
sS'ENSG00000170889'
p2015
I19
sS'ENSG00000182771'
p2016
I10
sS'ENSG00000121577'
p2017
I3
sS'ENSG00000158296'
p2018
I20
sS'ENSG00000244694'
p2019
I6
sS'ENSG00000130948'
p2020
I9
sS'ENSG00000196268'
p2021
I19
sS'ENSG00000121542'
p2022
I3
sS'ENSG00000130943'
p2023
I22
sS'ENSG00000149823'
p2024
I11
sS'ENSG00000113971'
p2025
I3
sS'ENSG00000153930'
p2026
I17
sS'ENSG00000011590'
p2027
I19
sS'ENSG00000218416'
p2028
I2
sS'ENSG00000160271'
p2029
I9
sS'ENSG00000137634'
p2030
I11
sS'ENSG00000142686'
p2031
I1
sS'ENSG00000172992'
p2032
I17
sS'ENSG00000157927'
p2033
I7
sS'ENSG00000137841'
p2034
I15
sS'ENSG00000113575'
p2035
I5
sS'ENSG00000197324'
p2036
I14
sS'ENSG00000170088'
p2037
I4
sS'ENSG00000162976'
p2038
I2
sS'ENSG00000121310'
p2039
I1
sS'ENSG00000130649'
p2040
I10
sS'ENSG00000008988'
p2041
I8
sS'ENSG00000086102'
p2042
I9
sS'ENSG00000130312'
p2043
I19
sS'ENSG00000139192'
p2044
I12
sS'ENSG00000139190'
p2045
I12
sS'ENSG00000139197'
p2046
I12
sS'ENSG00000052344'
p2047
I16
sS'ENSG00000158402'
p2048
I5
sS'ENSG00000198912'
p2049
I1
sS'ENSG00000137441'
p2050
I4
sS'ENSG00000122965'
p2051
I12
sS'ENSG00000204930'
p2052
I9
sS'ENSG00000158815'
p2053
I8
sS'ENSG00000198915'
p2054
I10
sS'ENSG00000130449'
p2055
I5
sS'ENSG00000103811'
p2056
I15
sS'ENSG00000145476'
p2057
I4
sS'ENSG00000158792'
p2058
I16
sS'ENSG00000185298'
p2059
I17
sS'ENSG00000100395'
p2060
I22
sS'ENSG00000150593'
p2061
I10
sS'ENSG00000205078'
p2062
I16
sS'ENSG00000129007'
p2063
I15
sS'ENSG00000162836'
p2064
I1
sS'ENSG00000184988'
p2065
I17
sS'ENSG00000100372'
p2066
I22
sS'ENSG00000145808'
p2067
I5
sS'ENSG00000204498'
p2068
I6
sS'ENSG00000205076'
p2069
I19
sS'ENSG00000133636'
p2070
I12
sS'ENSG00000168303'
p2071
I7
sS'ENSG00000100075'
p2072
I22
sS'ENSG00000170017'
p2073
I3
sS'ENSG00000272514'
p2074
I6
sS'ENSG00000159658'
p2075
I1
sS'ENSG00000181982'
p2076
I4
sS'ENSG00000186088'
p2077
I7
sS'ENSG00000124164'
p2078
I20
sS'ENSG00000145982'
p2079
I6
sS'ENSG00000103253'
p2080
I16
sS'ENSG00000197723'
p2081
I17
sS'ENSG00000171763'
p2082
I15
sS'ENSG00000197728'
p2083
I12
sS'ENSG00000100296'
p2084
I22
sS'ENSG00000110713'
p2085
I11
sS'ENSG00000152348'
p2086
I5
sS'ENSG00000174236'
p2087
I12
sS'ENSG00000128284'
p2088
I22
sS'ENSG00000112977'
p2089
I5
sS'ENSG00000180185'
p2090
I16
sS'ENSG00000049540'
p2091
I7
sS'ENSG00000221947'
p2092
I8
sS'ENSG00000066056'
p2093
I1
sS'ENSG00000104894'
p2094
I19
sS'ENSG00000164074'
p2095
I4
sS'ENSG00000206562'
p2096
I3
sS'ENSG00000100197'
p2097
I22
sS'ENSG00000213967'
p2098
I19
sS'ENSG00000160321'
p2099
I19
sS'ENSG00000155393'
p2100
I16
sS'ENSG00000140022'
p2101
I14
sS'ENSG00000151773'
p2102
I13
sS'ENSG00000060140'
p2103
I12
sS'ENSG00000140455'
p2104
I15
sS'ENSG00000182919'
p2105
I11
sS'ENSG00000095917'
p2106
I16
sS'ENSG00000088543'
p2107
I3
sS'ENSG00000171840'
p2108
I12
sS'ENSG00000141698'
p2109
I17
sS'ENSG00000251369'
p2110
I19
sS'ENSG00000174282'
p2111
I17
sS'ENSG00000197345'
p2112
I11
sS'ENSG00000183691'
p2113
I17
sS'ENSG00000164096'
p2114
I4
sS'ENSG00000197020'
p2115
I19
sS'ENSG00000165092'
p2116
I9
sS'ENSG00000161980'
p2117
I16
sS'ENSG00000079974'
p2118
I22
sS'ENSG00000168743'
p2119
I4
sS'ENSG00000167543'
p2120
I17
sS'ENSG00000108771'
p2121
I17
sS'ENSG00000110435'
p2122
I11
sS'ENSG00000104899'
p2123
I19
sS'ENSG00000155957'
p2124
I12
sS'ENSG00000110436'
p2125
I11
sS'ENSG00000120451'
p2126
I11
sS'ENSG00000171119'
p2127
I19
sS'ENSG00000147894'
p2128
I9
sS'ENSG00000104881'
p2129
I19
sS'ENSG00000103160'
p2130
I16
sS'ENSG00000079150'
p2131
I2
sS'ENSG00000020922'
p2132
I11
sS'ENSG00000110002'
p2133
I11
sS'ENSG00000124098'
p2134
I20
sS'ENSG00000067113'
p2135
I5
sS'ENSG00000072786'
p2136
I5
sS'ENSG00000140988'
p2137
I16
sS'ENSG00000160194'
p2138
I21
sS'ENSG00000187010'
p2139
I1
sS'ENSG00000160193'
p2140
I21
sS'ENSG00000203697'
p2141
I1
sS'ENSG00000015475'
p2142
I22
sS'ENSG00000204308'
p2143
I6
sS'ENSG00000248835'
p2144
I1
sS'ENSG00000171596'
p2145
I2
sS'ENSG00000171595'
p2146
I17
sS'ENSG00000232859'
p2147
I17
sS'ENSG00000171160'
p2148
I10
sS'ENSG00000160606'
p2149
I17
sS'ENSG00000129347'
p2150
I19
sS'ENSG00000100109'
p2151
I22
sS'ENSG00000232629'
p2152
I6
sS'ENSG00000111530'
p2153
I12
sS'ENSG00000145592'
p2154
I5
sS'ENSG00000185250'
p2155
I6
sS'ENSG00000167377'
p2156
I16
sS'ENSG00000213030'
p2157
I19
sS'ENSG00000037637'
p2158
I1
sS'ENSG00000134490'
p2159
I18
sS'ENSG00000078674'
p2160
I8
sS'ENSG00000146376'
p2161
I6
sS'ENSG00000167378'
p2162
I19
sS'ENSG00000176055'
p2163
I5
sS'ENSG00000142583'
p2164
I1
sS'ENSG00000160999'
p2165
I7
sS'ENSG00000077782'
p2166
I8
sS'ENSG00000171097'
p2167
I9
sS'ENSG00000175155'
p2168
I17
sS'ENSG00000242441'
p2169
I2
sS'ENSG00000124780'
p2170
I6
sS'ENSG00000152689'
p2171
I2
sS'ENSG00000124782'
p2172
I6
sS'ENSG00000198502'
p2173
I6
sS'ENSG00000135541'
p2174
I6
sS'ENSG00000093183'
p2175
I3
sS'ENSG00000167772'
p2176
I19
sS'ENSG00000002016'
p2177
I12
sS'ENSG00000111834'
p2178
I6
sS'ENSG00000068654'
p2179
I2
sS'ENSG00000167671'
p2180
I19
sS'ENSG00000167670'
p2181
I19
sS'ENSG00000165113'
p2182
I9
sS'ENSG00000138399'
p2183
I2
sS'ENSG00000140939'
p2184
I16
sS'ENSG00000167674'
p2185
I19
sS'ENSG00000064763'
p2186
I12
sS'ENSG00000143185'
p2187
I1
sS'ENSG00000162078'
p2188
I16
sS'ENSG00000151224'
p2189
I10
sS'ENSG00000106069'
p2190
I7
sS'ENSG00000144909'
p2191
I3
sS'ENSG00000151553'
p2192
I10
sS'ENSG00000123838'
p2193
I1
sS'ENSG00000010818'
p2194
I6
sS'ENSG00000214706'
p2195
I3
sS'ENSG00000243749'
p2196
I1
sS'ENSG00000065413'
p2197
I2
sS'ENSG00000105568'
p2198
I19
sS'ENSG00000189052'
p2199
I19
sS'ENSG00000105486'
p2200
I19
sS'ENSG00000168993'
p2201
I4
sS'ENSG00000163092'
p2202
I2
sS'ENSG00000088833'
p2203
I20
sS'ENSG00000139344'
p2204
I12
sS'ENSG00000103740'
p2205
I15
sS'ENSG00000111665'
p2206
I12
sS'ENSG00000111664'
p2207
I12
sS'ENSG00000106086'
p2208
I7
sS'ENSG00000176472'
p2209
I19
sS'ENSG00000178568'
p2210
I2
sS'ENSG00000196511'
p2211
I7
sS'ENSG00000181617'
p2212
I4
sS'ENSG00000168280'
p2213
I2
sS'ENSG00000184227'
p2214
I14
sS'ENSG00000117222'
p2215
I1
sS'ENSG00000141540'
p2216
I17
sS'ENSG00000263812'
p2217
I18
sS'ENSG00000166855'
p2218
I15
sS'ENSG00000175711'
p2219
I17
sS'ENSG00000120910'
p2220
I8
sS'ENSG00000248712'
p2221
I11
sS'ENSG00000167580'
p2222
I12
sS'ENSG00000147862'
p2223
I9
sS'ENSG00000166750'
p2224
I17
sS'ENSG00000143768'
p2225
I1
sS'ENSG00000162738'
p2226
I1
sS'ENSG00000167555'
p2227
I19
sS'ENSG00000111696'
p2228
I12
sS'ENSG00000155542'
p2229
I5
sS'ENSG00000092054'
p2230
I14
sS'ENSG00000169641'
p2231
I1
sS'ENSG00000105419'
p2232
I19
sS'ENSG00000106367'
p2233
I7
sS'ENSG00000147606'
p2234
I8
sS'ENSG00000112041'
p2235
I6
sS'ENSG00000132622'
p2236
I20
sS'ENSG00000163377'
p2237
I3
sS'ENSG00000161904'
p2238
I6
sS'ENSG00000116701'
p2239
I1
sS'ENSG00000123643'
p2240
I5
sS'ENSG00000080546'
p2241
I6
sS'ENSG00000168517'
p2242
I17
sS'ENSG00000122512'
p2243
I7
sS'ENSG00000152454'
p2244
I19
sS'ENSG00000145850'
p2245
I5
sS'ENSG00000105618'
p2246
I19
sS'ENSG00000244731'
p2247
I6
sS'ENSG00000123159'
p2248
I19
sS'ENSG00000148331'
p2249
I9
sS'ENSG00000176371'
p2250
I15
sS'ENSG00000167191'
p2251
I16
sS'ENSG00000109519'
p2252
I4
sS'ENSG00000176273'
p2253
I10
sS'ENSG00000172023'
p2254
I2
sS'ENSG00000173193'
p2255
I3
sS'ENSG00000100030'
p2256
I22
sS'ENSG00000100218'
p2257
I22
sS'ENSG00000197157'
p2258
I7
sS'ENSG00000183421'
p2259
I21
sS'ENSG00000187624'
p2260
I17
sS'ENSG00000147647'
p2261
I8
sS'ENSG00000168216'
p2262
I6
sS'ENSG00000149043'
p2263
I11
sS'ENSG00000146063'
p2264
I5
sS'ENSG00000162877'
p2265
I1
sS'ENSG00000162706'
p2266
I1
sS'ENSG00000105996'
p2267
I7
sS'ENSG00000185842'
p2268
I1
sS'ENSG00000108821'
p2269
I17
sS'ENSG00000162734'
p2270
I1
sS'ENSG00000219626'
p2271
I2
sS'ENSG00000169020'
p2272
I4
sS'ENSG00000105246'
p2273
I19
sS'ENSG00000135763'
p2274
I1
sS'ENSG00000165730'
p2275
I10
sS'ENSG00000147465'
p2276
I8
sS'ENSG00000162267'
p2277
I3
sS'ENSG00000120341'
p2278
I1
sS'ENSG00000165985'
p2279
I10
sS'ENSG00000108523'
p2280
I17
sS'ENSG00000204444'
p2281
I6
sS'ENSG00000033050'
p2282
I7
sS'ENSG00000163576'
p2283
I3
sS'ENSG00000166130'
p2284
I12
sS'ENSG00000182264'
p2285
I19
sS'ENSG00000197181'
p2286
I8
sS'ENSG00000177483'
p2287
I2
sS'ENSG00000166507'
p2288
I10
sS'ENSG00000166501'
p2289
I16
sS'ENSG00000166503'
p2290
I15
sS'ENSG00000105341'
p2291
I19
sS'ENSG00000177000'
p2292
I1
sS'ENSG00000166509'
p2293
I16
sS'ENSG00000118094'
p2294
I11
sS'ENSG00000037897'
p2295
I12
sS'ENSG00000204740'
p2296
I10
sS'ENSG00000121858'
p2297
I3
sS'ENSG00000148814'
p2298
I10
sS'ENSG00000099365'
p2299
I16
sS'ENSG00000146243'
p2300
I6
sS'ENSG00000057608'
p2301
I10
sS'ENSG00000115204'
p2302
I2
sS'ENSG00000165702'
p2303
I9
sS'ENSG00000239857'
p2304
I7
sS'ENSG00000139725'
p2305
I12
sS'ENSG00000184154'
p2306
I11
sS'ENSG00000165934'
p2307
I14
sS'ENSG00000169914'
p2308
I1
sS'ENSG00000172059'
p2309
I2
sS'ENSG00000172058'
p2310
I5
sS'ENSG00000138079'
p2311
I2
sS'ENSG00000125124'
p2312
I16
sS'ENSG00000157335'
p2313
I16
sS'ENSG00000034677'
p2314
I8
sS'ENSG00000213213'
p2315
I9
sS'ENSG00000162426'
p2316
I1
sS'ENSG00000122678'
p2317
I7
sS'ENSG00000136854'
p2318
I9
sS'ENSG00000172270'
p2319
I19
sS'ENSG00000172687'
p2320
I19
sS'ENSG00000138376'
p2321
I2
sS'ENSG00000184983'
p2322
I22
sS'ENSG00000148399'
p2323
I9
sS'ENSG00000126790'
p2324
I14
sS'ENSG00000115841'
p2325
I2
sS'ENSG00000108556'
p2326
I17
sS'ENSG00000116906'
p2327
I1
sS'ENSG00000168936'
p2328
I4
sS'ENSG00000180953'
p2329
I15
sS'ENSG00000186377'
p2330
I1
sS'ENSG00000101247'
p2331
I20
sS'ENSG00000166435'
p2332
I11
sS'ENSG00000166436'
p2333
I11
sS'ENSG00000257949'
p2334
I17
sS'ENSG00000167920'
p2335
I17
sS'ENSG00000186474'
p2336
I19
sS'ENSG00000152582'
p2337
I5
sS'ENSG00000127530'
p2338
I19
sS'ENSG00000100373'
p2339
I22
sS'ENSG00000179915'
p2340
I2
sS'ENSG00000166165'
p2341
I14
sS'ENSG00000004534'
p2342
I3
sS'ENSG00000112319'
p2343
I6
sS'ENSG00000214087'
p2344
I17
sS'ENSG00000158714'
p2345
I1
sS'ENSG00000003400'
p2346
I2
sS'ENSG00000258890'
p2347
I17
sS'ENSG00000138293'
p2348
I10
sS'ENSG00000009790'
p2349
I1
sS'ENSG00000121486'
p2350
I1
sS'ENSG00000173876'
p2351
I10
sS'ENSG00000183628'
p2352
I22
sS'ENSG00000145217'
p2353
I4
sS'ENSG00000185052'
p2354
I20
sS'ENSG00000164344'
p2355
I4
sS'ENSG00000133983'
p2356
I14
sS'ENSG00000164346'
p2357
I5
sS'ENSG00000101670'
p2358
I18
sS'ENSG00000120217'
p2359
I9
sS'ENSG00000100441'
p2360
I14
sS'ENSG00000134317'
p2361
I2
sS'ENSG00000198862'
p2362
I21
sS'ENSG00000155130'
p2363
I6
sS'ENSG00000198860'
p2364
I1
sS'ENSG00000222047'
p2365
I10
sS'ENSG00000100448'
p2366
I14
sS'ENSG00000163072'
p2367
I2
sS'ENSG00000244734'
p2368
I11
sS'ENSG00000128185'
p2369
I22
sS'ENSG00000116819'
p2370
I1
sS'ENSG00000164283'
p2371
I5
sS'ENSG00000125877'
p2372
I20
sS'ENSG00000105519'
p2373
I19
sS'ENSG00000121417'
p2374
I19
sS'ENSG00000221838'
p2375
I7
sS'ENSG00000232560'
p2376
I21
sS'ENSG00000169085'
p2377
I8
sS'ENSG00000109046'
p2378
I17
sS'ENSG00000130812'
p2379
I19
sS'ENSG00000077522'
p2380
I1
sS'ENSG00000204169'
p2381
I10
sS'ENSG00000130816'
p2382
I19
sS'ENSG00000116138'
p2383
I1
sS'ENSG00000186897'
p2384
I12
sS'ENSG00000077150'
p2385
I10
sS'ENSG00000130770'
p2386
I1
sS'ENSG00000160182'
p2387
I21
sS'ENSG00000060558'
p2388
I19
sS'ENSG00000101079'
p2389
I20
sS'ENSG00000104731'
p2390
I16
sS'ENSG00000254614'
p2391
I11
sS'ENSG00000180822'
p2392
I6
sS'ENSG00000113569'
p2393
I5
sS'ENSG00000206503'
p2394
I6
sS'ENSG00000090487'
p2395
I15
sS'ENSG00000167136'
p2396
I9
sS'ENSG00000141391'
p2397
I18
sS'ENSG00000113360'
p2398
I5
sS'ENSG00000140104'
p2399
I14
sS'ENSG00000168152'
p2400
I4
sS'ENSG00000164880'
p2401
I7
sS'ENSG00000145740'
p2402
I5
sS'ENSG00000156171'
p2403
I1
sS'ENSG00000034971'
p2404
I1
sS'ENSG00000120733'
p2405
I5
sS'ENSG00000198818'
p2406
I6
sS'ENSG00000144026'
p2407
I2
sS'ENSG00000113593'
p2408
I5
sS'ENSG00000116785'
p2409
I1
sS'ENSG00000100592'
p2410
I14
sS'ENSG00000122592'
p2411
I7
sS'ENSG00000170004'
p2412
I17
sS'ENSG00000109775'
p2413
I4
sS'ENSG00000158321'
p2414
I7
sS'ENSG00000010626'
p2415
I12
sS'ENSG00000120696'
p2416
I13
sS'ENSG00000120694'
p2417
I13
sS'ENSG00000179950'
p2418
I8
sS'ENSG00000104884'
p2419
I19
sS'ENSG00000155657'
p2420
I2
sS'ENSG00000152213'
p2421
I13
sS'ENSG00000113580'
p2422
I5
sS'ENSG00000152359'
p2423
I5
sS'ENSG00000130177'
p2424
I13
sS'ENSG00000158856'
p2425
I8
sS'ENSG00000186501'
p2426
I1
sS'ENSG00000144021'
p2427
I2
sS'ENSG00000125388'
p2428
I4
sS'ENSG00000126870'
p2429
I7
sS'ENSG00000183648'
p2430
I14
sS'ENSG00000164088'
p2431
I3
sS'ENSG00000246223'
p2432
I14
sS'ENSG00000005421'
p2433
I7
sS'ENSG00000182362'
p2434
I21
sS'ENSG00000182670'
p2435
I21
sS'ENSG00000155428'
p2436
I7
sS'ENSG00000137449'
p2437
I4
sS'ENSG00000072832'
p2438
I4
sS'ENSG00000183527'
p2439
I21
sS'ENSG00000117477'
p2440
I1
sS'ENSG00000128590'
p2441
I7
sS'ENSG00000196139'
p2442
I10
sS'ENSG00000099974'
p2443
I22
sS'ENSG00000044524'
p2444
I3
sS'ENSG00000137106'
p2445
I9
sS'ENSG00000173226'
p2446
I3
sS'ENSG00000117143'
p2447
I1
sS'ENSG00000053918'
p2448
I11
sS'ENSG00000100749'
p2449
I14
sS'ENSG00000197140'
p2450
I8
sS'ENSG00000110852'
p2451
I12
sS'ENSG00000103248'
p2452
I16
sS'ENSG00000197927'
p2453
I2
sS'ENSG00000170456'
p2454
I12
sS'ENSG00000144455'
p2455
I3
sS'ENSG00000147724'
p2456
I8
sS'ENSG00000180481'
p2457
I12
sS'ENSG00000138085'
p2458
I2
sS'ENSG00000087245'
p2459
I16
sS'ENSG00000178381'
p2460
I7
sS'ENSG00000093072'
p2461
I22
sS'ENSG00000254943'
p2462
I11
sS'ENSG00000104957'
p2463
I19
sS'ENSG00000101019'
p2464
I20
sS'ENSG00000161692'
p2465
I17
sS'ENSG00000185352'
p2466
I13
sS'ENSG00000134313'
p2467
I2
sS'ENSG00000136856'
p2468
I9
sS'ENSG00000170759'
p2469
I10
sS'ENSG00000179593'
p2470
I17
sS'ENSG00000008838'
p2471
I17
sS'ENSG00000134253'
p2472
I1
sS'ENSG00000156831'
p2473
I8
sS'ENSG00000232850'
p2474
I9
sS'ENSG00000146966'
p2475
I7
sS'ENSG00000014138'
p2476
I11
sS'ENSG00000140632'
p2477
I16
sS'ENSG00000144895'
p2478
I3
sS'ENSG00000181333'
p2479
I11
sS'ENSG00000140320'
p2480
I15
sS'ENSG00000129351'
p2481
I19
sS'ENSG00000075826'
p2482
I10
sS'ENSG00000140323'
p2483
I15
sS'ENSG00000133433'
p2484
I22
sS'ENSG00000124935'
p2485
I11
sS'ENSG00000103249'
p2486
I16
sS'ENSG00000197714'
p2487
I19
sS'ENSG00000124939'
p2488
I11
sS'ENSG00000103245'
p2489
I16
sS'ENSG00000197245'
p2490
I1
sS'ENSG00000171617'
p2491
I5
s.